 pscp

 Timestamp is 51cc0b15 (Thu Jun 27 11:51:17 2013)

 Preferred load address is 00400000

 Start         Length     Name                   Class
 0001:00000000 000447c7H .text                   CODE
 0002:00000000 00000208H .idata$5                DATA
 0002:00000208 00000004H .CRT$XCA                DATA
 0002:0000020c 00000004H .CRT$XCZ                DATA
 0002:00000210 00000004H .CRT$XIA                DATA
 0002:00000214 00000010H .CRT$XIC                DATA
 0002:00000224 00000004H .CRT$XIY                DATA
 0002:00000228 00000004H .CRT$XIZ                DATA
 0002:0000022c 00000004H .CRT$XPA                DATA
 0002:00000230 00000008H .CRT$XPX                DATA
 0002:00000238 00000004H .CRT$XPXA               DATA
 0002:0000023c 00000004H .CRT$XPZ                DATA
 0002:00000240 00000004H .CRT$XTA                DATA
 0002:00000244 00000004H .CRT$XTZ                DATA
 0002:00000250 00013bf8H .rdata                  DATA
 0002:00013e50 0000000cH .rdata$sxdata           DATA
 0002:00013e5c 00000004H .rtc$IAA                DATA
 0002:00013e60 00000004H .rtc$IZZ                DATA
 0002:00013e64 00000004H .rtc$TAA                DATA
 0002:00013e68 00000004H .rtc$TZZ                DATA
 0002:00013e70 0000059cH .xdata$x                DATA
 0002:0001440c 0000003cH .idata$2                DATA
 0002:00014448 00000014H .idata$3                DATA
 0002:0001445c 00000208H .idata$4                DATA
 0002:00014664 00000922H .idata$6                DATA
 0002:00014f86 00000000H .edata                  DATA
 0003:00000000 000019c8H .data                   DATA
 0003:000019e0 00002d00H .bss                    DATA
 0004:00000000 000001d8H .rsrc$01                DATA
 0004:000001e0 00001348H .rsrc$02                DATA

  Address         Publics by Value              Rva+Base       Lib:Object

 0000:00000000       __except_list              00000000     <absolute>
 0000:00000003       ___safe_se_handler_count   00000003     <absolute>
 0000:00000000       ___ImageBase               00400000     <linker-defined>
 0001:00000022       _cmdline_cleanup           00401022 f   cmdline.obj
 0001:00000078       _cmdline_get_passwd_input  00401078 f   cmdline.obj
 0001:000000f0       _cmdline_process_param     004010f0 f   cmdline.obj
 0001:00000de2       _cmdline_run_saved         00401de2 f   cmdline.obj
 0001:00000ef0       _conf_copy                 00401ef0 f   conf.obj
 0001:00000f08       _conf_copy_into            00401f08 f   conf.obj
 0001:00000fc2       _conf_del_str_str          00401fc2 f   conf.obj
 0001:00001042       _conf_free                 00402042 f   conf.obj
 0001:0000105f       _conf_get_filename         0040205f f   conf.obj
 0001:000010de       _conf_get_int              004020de f   conf.obj
 0001:0000115d       _conf_get_int_int          0040215d f   conf.obj
 0001:000011e2       _conf_get_str              004021e2 f   conf.obj
 0001:00001261       _conf_get_str_nthstrkey    00402261 f   conf.obj
 0001:000012f8       _conf_get_str_strs         004022f8 f   conf.obj
 0001:000013e5       _conf_new                  004023e5 f   conf.obj
 0001:00001404       _conf_set_filename         00402404 f   conf.obj
 0001:00001476       _conf_set_fontspec         00402476 f   conf.obj
 0001:000014e8       _conf_set_int              004024e8 f   conf.obj
 0001:00001554       _conf_set_int_int          00402554 f   conf.obj
 0001:000015c7       _conf_set_str              004025c7 f   conf.obj
 0001:00001639       _conf_set_str_str          00402639 f   conf.obj
 0001:0000170f       _proxy_socks5_handlechap   0040270f f   cproxy.obj
 0001:0000193a       _proxy_socks5_offerencryptedauth 0040293a f   cproxy.obj
 0001:0000194b       _proxy_socks5_selectchap   0040294b f   cproxy.obj
 0001:00001a36       _uint64_add32              00402a36 f   int64.obj
 0001:00001a50       _uint64_compare            00402a50 f   int64.obj
 0001:00001a6f       _uint64_decimal            00402a6f f   int64.obj
 0001:00001afd       _uint64_div10              00402afd f   int64.obj
 0001:00001b40       _uint64_from_decimal       00402b40 f   int64.obj
 0001:00001bba       _uint64_make               00402bba f   int64.obj
 0001:00001bc3       _uint64_shift_left         00402bc3 f   int64.obj
 0001:00001c00       _uint64_shift_right        00402c00 f   int64.obj
 0001:00001c3b       _uint64_subtract           00402c3b f   int64.obj
 0001:00001c58       _uint64_to_double          00402c58 f   int64.obj
 0001:00001c9f       _log_eventlog              00402c9f f   logging.obj
 0001:00001d03       _log_init                  00402d03 f   logging.obj
 0001:00001d48       _log_packet                00402d48 f   logging.obj
 0001:00002089       _logfclose                 00403089 f   logging.obj
 0001:000020a4       _logflush                  004030a4 f   logging.obj
 0001:000020bd       _logfopen                  004030bd f   logging.obj
 0001:00002567       _add_prompt                00403567 f   misc.obj
 0001:000025ad       _base64_encode_atom        004035ad f   misc.obj
 0001:0000262f       _bufchain_add              0040362f f   misc.obj
 0001:000026bb       _bufchain_clear            004036bb f   misc.obj
 0001:000026e3       _bufchain_consume          004036e3 f   misc.obj
 0001:00002762       _bufchain_fetch            00403762 f   misc.obj
 0001:000027d8       _bufchain_init             004037d8 f   misc.obj
 0001:000027e7       _bufchain_prefix           004037e7 f   misc.obj
 0001:00002805       _bufchain_size             00403805 f   misc.obj
 0001:0000280d       _conf_launchable           0040380d f   misc.obj
 0001:0000283a       _ctrlparse                 0040383a f   misc.obj
 0001:000028c0       _dupcat                    004038c0 f   misc.obj
 0001:0000293d       _dupprintf                 0040393d f   misc.obj
 0001:0000294e       _dupstr                    0040394e f   misc.obj
 0001:0000297c       _dupvprintf                0040397c f   misc.obj
 0001:000029cb       _free_prompts              004039cb f   misc.obj
 0001:00002a4d       _new_prompts               00403a4d f   misc.obj
 0001:00002a7d       _parse_blocksize           00403a7d f   misc.obj
 0001:00002aea       _prompt_ensure_result_size 00403aea f   misc.obj
 0001:00002b4a       _prompt_set_result         00403b4a f   misc.obj
 0001:00002b71       _safefree                  00403b71 f   misc.obj
 0001:00002b7d       _safemalloc                00403b7d f   misc.obj
 0001:00002bee       _saferealloc               00403bee f   misc.obj
 0001:00002c67       _pinger_free               00403c67 f   pinger.obj
 0001:00002c76       _pinger_new                00403c76 f   pinger.obj
 0001:00002cae       _pinger_reconfig           00403cae f   pinger.obj
 0001:000032b3       _pfd_addforward            004042b3 f   portfwd.obj
 0001:00003368       _pfd_close                 00404368 f   portfwd.obj
 0001:00003397       _pfd_confirm               00404397 f   portfwd.obj
 0001:000033f6       _pfd_newconnect            004043f6 f   portfwd.obj
 0001:000034a9       _pfd_override_throttle     004044a9 f   portfwd.obj
 0001:000034d9       _pfd_send                  004044d9 f   portfwd.obj
 0001:000034f6       _pfd_send_eof              004044f6 f   portfwd.obj
 0001:000034f6       _x11_send_eof              004044f6 f   x11fwd.obj
 0001:00003502       _pfd_terminate             00404502 f   portfwd.obj
 0001:00003507       _pfd_unthrottle            00404507 f   portfwd.obj
 0001:00003853       _format_telnet_command     00404853 f   proxy.obj
 0001:00003ef3       _name_lookup               00404ef3 f   proxy.obj
 0001:00003f76       _new_connection            00404f76 f   proxy.obj
 0001:0000414b       _new_listener              0040514b f   proxy.obj
 0001:00004167       _proxy_activate            00405167 f   proxy.obj
 0001:00004466       _proxy_http_negotiate      00405466 f   proxy.obj
 0001:00004856       _proxy_socks4_negotiate    00405856 f   proxy.obj
 0001:00004aae       _proxy_socks5_negotiate    00405aae f   proxy.obj
 0001:00004ff2       _proxy_telnet_negotiate    00405ff2 f   proxy.obj
 0001:00005132       _cmdline_error             00406132 f   pscp.obj
 0001:000051ca       _connection_fatal          004061ca f   pscp.obj
 0001:000055e0       _from_backend              004065e0 f   pscp.obj
 0001:000056a5       _from_backend_eof          004066a5 f   pscp.obj
 0001:000056c1       _from_backend_untrusted    004066c1 f   pscp.obj
 0001:00005801       _ldisc_send                00406801 f   pscp.obj
 0001:0000581d       _modalfatalbox             0040681d f   pscp.obj
 0001:0000581d       _fatalbox                  0040681d f   pscp.obj
 0001:00005a93       _psftp_main                00406a93 f   pscp.obj
 0001:0000604b       _scp_accept_filexfer       0040704b f   pscp.obj
 0001:00006131       _scp_finish_filerecv       00407131 f   pscp.obj
 0001:0000621d       _scp_get_sink_action       0040721d f   pscp.obj
 0001:00006a2c       _scp_recv_filedata         00407a2c f   pscp.obj
 0001:00006b19       _scp_restore_remotepath    00407b19 f   pscp.obj
 0001:00006b30       _scp_send_dirname          00407b30 f   pscp.obj
 0001:00006ce6       _scp_send_enddir           00407ce6 f   pscp.obj
 0001:00006d1b       _scp_send_errmsg           00407d1b f   pscp.obj
 0001:00006d5e       _scp_send_filedata         00407d5e f   pscp.obj
 0001:00006e46       _scp_send_filename         00407e46 f   pscp.obj
 0001:00007008       _scp_send_filetimes        00408008 f   pscp.obj
 0001:00007086       _scp_send_finish           00408086 f   pscp.obj
 0001:00007200       _scp_sftp_listdir          00408200 f   pscp.obj
 0001:00007434       _scp_sink_init             00408434 f   pscp.obj
 0001:00007458       _scp_sink_setup            00408458 f   pscp.obj
 0001:000075b5       _scp_source_setup          004085b5 f   pscp.obj
 0001:000076ce       _sftp_recvdata             004086ce f   pscp.obj
 0001:000076d3       _sftp_senddata             004086d3 f   pscp.obj
 0001:00008552       _version                   00409552 f   pscp.obj
 0001:0000856c       _backend_from_name         0040956c f   settings.obj
 0001:0000859f       _do_defaults               0040959f f   settings.obj
 0001:000085a4       _get_remote_username       004095a4 f   settings.obj
 0001:000089d3       _load_open_settings        004099d3 f   settings.obj
 0001:000098bf       _load_settings             0040a8bf f   settings.obj
 0001:000098f7       _fxp_close_recv            0040a8f7 f   sftp.obj
 0001:00009916       _fxp_close_send            0040a916 f   sftp.obj
 0001:00009962       _fxp_error                 0040a962 f   sftp.obj
 0001:00009968       _fxp_error_type            0040a968 f   sftp.obj
 0001:0000996e       _fxp_free_names            0040a96e f   sftp.obj
 0001:000099b2       _fxp_mkdir_recv            0040a9b2 f   sftp.obj
 0001:000099b2       _fxp_fsetstat_recv         0040a9b2 f   sftp.obj
 0001:000099dd       _fxp_fsetstat_send         0040a9dd f   sftp.obj
 0001:00009aab       _fxp_init                  0040aaab f   sftp.obj
 0001:00009b4e       _fxp_mkdir_send            0040ab4e f   sftp.obj
 0001:00009b88       _fxp_open_recv             0040ab88 f   sftp.obj
 0001:00009c01       _fxp_open_send             0040ac01 f   sftp.obj
 0001:00009c6a       _fxp_opendir_recv          0040ac6a f   sftp.obj
 0001:00009ce3       _fxp_opendir_send          0040ace3 f   sftp.obj
 0001:00009d15       _fxp_read_recv             0040ad15 f   sftp.obj
 0001:00009da5       _fxp_read_send             0040ada5 f   sftp.obj
 0001:00009dfa       _fxp_readdir_recv          0040adfa f   sftp.obj
 0001:00009f88       _fxp_readdir_send          0040af88 f   sftp.obj
 0001:00009fc5       _fxp_stat_recv             0040afc5 f   sftp.obj
 0001:0000a018       _fxp_stat_send             0040b018 f   sftp.obj
 0001:0000a04a       _fxp_write_recv            0040b04a f   sftp.obj
 0001:0000a074       _fxp_write_send            0040b074 f   sftp.obj
 0001:0000a1c0       _sftp_find_request         0040b1c0 f   sftp.obj
 0001:0000a6b6       _sftp_recv                 0040b6b6 f   sftp.obj
 0001:0000a74b       _sftp_register             0040b74b f   sftp.obj
 0001:0000a770       _sftp_send                 0040b770 f   sftp.obj
 0001:0000a7c4       _xfer_cleanup              0040b7c4 f   sftp.obj
 0001:0000a7f8       _xfer_done                 0040b7f8 f   sftp.obj
 0001:0000a811       _xfer_download_data        0040b811 f   sftp.obj
 0001:0000a87a       _xfer_download_gotpkt      0040b87a f   sftp.obj
 0001:0000a97b       _xfer_download_init        0040b97b f   sftp.obj
 0001:0000a9a0       _xfer_download_queue       0040b9a0 f   sftp.obj
 0001:0000aab1       _xfer_set_error            0040bab1 f   sftp.obj
 0001:0000aabd       _xfer_upload_data          0040babd f   sftp.obj
 0001:0000ab42       _xfer_upload_gotpkt        0040bb42 f   sftp.obj
 0001:0000aba6       _xfer_upload_init          0040bba6 f   sftp.obj
 0001:0000abc2       _xfer_upload_ready         0040bbc2 f   sftp.obj
 0001:0000abd2       _sk_address_is_special_local 0040bbd2 f   winnet.obj
 0001:0000abd2       _get_ttymode               0040bbd2 f   winsftp.obj
 0001:000126aa       _new_sock_channel          004136aa f   ssh.obj
 0001:00016de3       _ssh_fallback_cmd          00417de3 f   ssh.obj
 0001:0001773c       _ssh_send_port_open        0041873c f   ssh.obj
 0001:00018293       _sshfwd_unclean_close      00419293 f   ssh.obj
 0001:000182f2       _sshfwd_unthrottle         004192f2 f   ssh.obj
 0001:0001834d       _sshfwd_write              0041934d f   ssh.obj
 0001:000183a9       _sshfwd_write_eof          004193a9 f   ssh.obj
 0001:000183cd       _aes_make_context          004193cd f   sshaes.obj
 0001:000183dc       _aes128_key                004193dc f   sshaes.obj
 0001:000183f1       _aes192_key                004193f1 f   sshaes.obj
 0001:00018406       _aes256_key                00419406 f   sshaes.obj
 0001:0001841b       _aes_iv                    0041941b f   sshaes.obj
 0001:0001845d       _aes_ssh2_encrypt_blk      0041945d f   sshaes.obj
 0001:00018487       _aes_ssh2_decrypt_blk      00419487 f   sshaes.obj
 0001:0001849c       _aes256_decrypt_pubkey     0041949c f   sshaes.obj
 0001:0001a3ca       _hmacmd5_free_context      0041b3ca f   sshmd5.obj
 0001:0001a3ca       _aes_free_context          0041b3ca f   sshaes.obj
 0001:0001b5b3       _bigadd                    0041c5b3 f   sshbn.obj
 0001:0001b885       _bigmod                    0041c885 f   sshbn.obj
 0001:0001b8a9       _bigmul                    0041c8a9 f   sshbn.obj
 0001:0001b8bc       _bigmuladd                 0041c8bc f   sshbn.obj
 0001:0001ba6d       _bignum_bitcount           0041ca6d f   sshbn.obj
 0001:0001baa7       _bignum_bitmask            0041caa7 f   sshbn.obj
 0001:0001baeb       _bignum_byte               0041caeb f   sshbn.obj
 0001:0001bb29       _bignum_cmp                0041cb29 f   sshbn.obj
 0001:0001bb7d       _bignum_from_bytes         0041cb7d f   sshbn.obj
 0001:0001bc04       _bignum_rshift             0041cc04 f   sshbn.obj
 0001:0001bcae       _bignum_set_bit            0041ccae f   sshbn.obj
 0001:0001bcf8       _bigsub                    0041ccf8 f   sshbn.obj
 0001:0001bdac       _bn_power_2                0041cdac f   sshbn.obj
 0001:0001bdd6       _copybn                    0041cdd6 f   sshbn.obj
 0001:0001be0e       _decbn                     0041ce0e f   sshbn.obj
 0001:0001be2c       _freebn                    0041ce2c f   sshbn.obj
 0001:0001c51e       _modinv                    0041d51e f   sshbn.obj
 0001:0001c6c5       _modmul                    0041d6c5 f   sshbn.obj
 0001:0001c9e7       _modpow                    0041d9e7 f   sshbn.obj
 0001:0001cdd8       _modpow_simple             0041ddd8 f   sshbn.obj
 0001:0001d2b1       _ssh1_bignum_length        0041e2b1 f   sshbn.obj
 0001:0001d2cb       _ssh1_read_bignum          0041e2cb f   sshbn.obj
 0001:0001d326       _ssh1_write_bignum         0041e326 f   sshbn.obj
 0001:0001d36c       _ssh2_bignum_length        0041e36c f   sshbn.obj
 0001:0001d386       _crc32_compute             0041e386 f   sshcrc.obj
 0001:0001d399       _crc32_update              0041e399 f   sshcrc.obj
 0001:0001d479       _crcda_free_context        0041e479 f   sshcrcda.obj
 0001:0001d496       _crcda_make_context        0041e496 f   sshcrcda.obj
 0001:0001d4ac       _detect_attack             0041e4ac f   sshcrcda.obj
 0001:0001da09       _des3_decrypt_pubkey       0041ea09 f   sshdes.obj
 0001:0001e909       _des_decrypt_xdmauth       0041f909 f   sshdes.obj
 0001:0001f534       _dh_cleanup                00420534 f   sshdh.obj
 0001:0001f573       _dh_create_e               00420573 f   sshdh.obj
 0001:0001f68d       _dh_find_K                 0042068d f   sshdh.obj
 0001:0001f6ca       _dh_setup_gex              004206ca f   sshdh.obj
 0001:0001f6fb       _dh_setup_group            004206fb f   sshdh.obj
 0001:000208c9       _ssh_gssapi_bind_fns       004218c9 f   sshgssc.obj
 0001:00020b5c       _hmacmd5_make_context      00421b5c f   sshmd5.obj
 0001:00020cd6       _MD5Final                  00421cd6 f   sshmd5.obj
 0001:00020dc2       _MD5Init                   00421dc2 f   sshmd5.obj
 0001:00020ded       _MD5Simple                 00421ded f   sshmd5.obj
 0001:00020e36       _MD5Update                 00421e36 f   sshmd5.obj
 0001:000219bb       _hmacmd5_do_hmac           004229bb f   sshmd5.obj
 0001:00021a93       _hmacmd5_key               00422a93 f   sshmd5.obj
 0001:00021b6a       _base64_decode_atom        00422b6a f   sshpubk.obj
 0001:00021c56       _find_pubkey_alg           00422c56 f   sshpubk.obj
 0001:00021c8f       _key_type                  00422c8f f   sshpubk.obj
 0001:00021d87       _key_type_to_str           00422d87 f   sshpubk.obj
 0001:00021dc9       _loadrsakey                00422dc9 f   sshpubk.obj
 0001:000223ce       _rsakey_encrypted          004233ce f   sshpubk.obj
 0001:0002244d       _rsakey_pubblob            0042344d f   sshpubk.obj
 0001:00022562       _ssh2_load_userkey         00423562 f   sshpubk.obj
 0001:00022d51       _ssh2_userkey_encrypted    00423d51 f   sshpubk.obj
 0001:00022e99       _ssh2_userkey_loadpub      00423e99 f   sshpubk.obj
 0001:0002315d       _random_add_noise          0042415d f   sshrand.obj
 0001:00023221       _random_byte               00424221 f   sshrand.obj
 0001:0002324b       _random_get_savedata       0042424b f   sshrand.obj
 0001:0002328b       _random_ref                0042428b f   sshrand.obj
 0001:0002340a       _random_unref              0042440a f   sshrand.obj
 0001:0002409f       _crt_modpow                0042509f f   sshrsa.obj
 0001:000241c6       _freersakey                004251c6 f   sshrsa.obj
 0001:0002426a       _makekey                   0042526a f   sshrsa.obj
 0001:00024349       _makeprivate               00425349 f   sshrsa.obj
 0001:0002445d       _rsa_fingerprint           0042545d f   sshrsa.obj
 0001:000247f3       _rsa_public_blob           004257f3 f   sshrsa.obj
 0001:00024878       _rsa_verify                00425878 f   sshrsa.obj
 0001:00024985       _rsadecrypt                00425985 f   sshrsa.obj
 0001:0002498a       _rsaencrypt                0042598a f   sshrsa.obj
 0001:00024a36       _rsastr_fmt                00425a36 f   sshrsa.obj
 0001:00024b2e       _rsastr_len                00425b2e f   sshrsa.obj
 0001:00024b6c       _ssh_rsakex_encrypt        00425b6c f   sshrsa.obj
 0001:00024cb3       _ssh_rsakex_freekey        00425cb3 f   sshrsa.obj
 0001:00024cb8       _ssh_rsakex_klen           00425cb8 f   sshrsa.obj
 0001:00024cc6       _ssh_rsakex_newkey         00425cc6 f   sshrsa.obj
 0001:00024e8c       _SHA256_Block              00425e8c f   sshsh256.obj
 0001:000252d5       _SHA256_Bytes              004262d5 f   sshsh256.obj
 0001:000253be       _SHA256_Core_Init          004263be f   sshsh256.obj
 0001:000253fa       _SHA256_Final              004263fa f   sshsh256.obj
 0001:000254e5       _SHA256_Init               004264e5 f   sshsh256.obj
 0001:000265c9       _SHA512_Bytes              004275c9 f   sshsh512.obj
 0001:00026717       _SHA512_Final              00427717 f   sshsh512.obj
 0001:00026844       _SHA512_Init               00427844 f   sshsh512.obj
 0001:00026b5d       _SHATransform              00427b5d f   sshsha.obj
 0001:00026d0d       _SHA_Bytes                 00427d0d f   sshsha.obj
 0001:00026df6       _SHA_Final                 00427df6 f   sshsha.obj
 0001:00026ee2       _SHA_Init                  00427ee2 f   sshsha.obj
 0001:00026f14       _SHA_Simple                00427f14 f   sshsha.obj
 0001:00026f5d       _hmac_sha1_simple          00427f5d f   sshsha.obj
 0001:00027130       _zlib_compress_init        00428130 f   sshzlib.obj
 0001:000271ca       _zlib_compress_cleanup     004281ca f   sshzlib.obj
 0001:000271e9       _zlib_decompress_init      004281e9 f   sshzlib.obj
 0001:000272b9       _zlib_decompress_cleanup   004282b9 f   sshzlib.obj
 0001:00027310       _zlib_compress_block       00428310 f   sshzlib.obj
 0001:0002743d       _zlib_decompress_block     0042843d f   sshzlib.obj
 0001:0002854d       _expire_timer_context      0042954d f   timing.obj
 0001:0002859a       _run_timers                0042959a f   timing.obj
 0001:00028639       _schedule_timer            00429639 f   timing.obj
 0001:000286ca       _add234                    004296ca f   tree234.obj
 0001:00028be9       _count234                  00429be9 f   tree234.obj
 0001:00028c2c       _del234                    00429c2c f   tree234.obj
 0001:00028c5b       _delpos234                 00429c5b f   tree234.obj
 0001:0002910a       _find234                   0042a10a f   tree234.obj
 0001:00029123       _findrel234                0042a123 f   tree234.obj
 0001:0002913e       _findrelpos234             0042a13e f   tree234.obj
 0001:0002929f       _freetree234               0042a29f f   tree234.obj
 0001:000292b5       _index234                  0042a2b5 f   tree234.obj
 0001:0002932f       _newtree234                0042a32f f   tree234.obj
 0001:00029345       _wc_match                  0042a345 f   wildcard.obj
 0001:00029569       _wc_unescape               0042a569 f   wildcard.obj
 0001:000295b7       _askalg                    0042a5b7 f   wincons.obj
 0001:00029691       _askappend                 0042a691 f   wincons.obj
 0001:00029777       _cleanup_exit              0042a777 f   wincons.obj
 0001:000297a6       _console_get_userpass_input 0042a7a6 f   wincons.obj
 0001:00029a13       _console_provide_logctx    0042aa13 f   wincons.obj
 0001:00029a1d       _logevent                  0042aa1d f   wincons.obj
 0001:00029a2f       _old_keyfile_warning       0042aa2f f   wincons.obj
 0001:00029a45       _pgp_fingerprints          0042aa45 f   wincons.obj
 0001:00029a5b       _add_session_to_jumplist   0042aa5b f   winnojmp.obj
 0001:00029a5b       _set_busy_status           0042aa5b f   wincons.obj
 0001:00029a5b       _notify_remote_exit        0042aa5b f   wincons.obj
 0001:00029a5b       _update_specials_menu      0042aa5b f   wincons.obj
 0001:00029a5b       _timer_change_notify       0042aa5b f   wincons.obj
 0001:00029a5b       _platform_get_x11_auth     0042aa5b f   winsftp.obj
 0001:00029a5c       _verify_ssh_host_key       0042aa5c f   wincons.obj
 0001:00029bc9       _platform_default_filename 0042abc9 f   windefs.obj
 0001:00029bf0       _platform_default_fontspec 0042abf0 f   windefs.obj
 0001:00029c22       _platform_default_i        0042ac22 f   windefs.obj
 0001:00029c27       _platform_default_s        0042ac27 f   windefs.obj
 0001:00029c4a       _ssh_gss_cleanup           0042ac4a f   wingss.obj
 0001:00029c94       _ssh_gss_setup             0042ac94 f   wingss.obj
 0001:0002a35f       _handle_free               0042b35f f   winhandl.obj
 0001:0002a3ba       _handle_get_events         0042b3ba f   winhandl.obj
 0001:0002a423       _handle_get_privdata       0042b423 f   winhandl.obj
 0001:0002a42b       _handle_got_event          0042b42b f   winhandl.obj
 0001:0002a519       _handle_input_new          0042b519 f   winhandl.obj
 0001:0002a712       _handle_output_new         0042b712 f   winhandl.obj
 0001:0002a967       _handle_write              0042b967 f   winhandl.obj
 0001:0002a9c9       _handle_write_eof          0042b9c9 f   winhandl.obj
 0001:0002aa03       _filename_copy             0042ba03 f   winmisc.obj
 0001:0002aa10       _filename_free             0042ba10 f   winmisc.obj
 0001:0002aa10       _fontspec_free             0042ba10 f   winmisc.obj
 0001:0002aa26       _filename_from_str         0042ba26 f   winmisc.obj
 0001:0002aa44       _filename_is_null          0042ba44 f   winmisc.obj
 0001:0002aa52       _filename_to_str           0042ba52 f   winmisc.obj
 0001:0002aa59       _fontspec_copy             0042ba59 f   winmisc.obj
 0001:0002aa71       _fontspec_new              0042ba71 f   winmisc.obj
 0001:0002aaa4       _get_username              0042baa4 f   winmisc.obj
 0001:0002ab8a       _load_system32_dll         0042bb8a f   winmisc.obj
 0001:0002abf8       _platform_get_x_display    0042bbf8 f   winmisc.obj
 0001:0002ac0b       _smemclr                   0042bc0b f   winmisc.obj
 0001:0002adbe       _IN6_IS_ADDR_LOOPBACK      0042bdbe f i winnet.obj
 0001:0002ae55       _first_socket              0042be55 f   winnet.obj
 0001:0002af26       _net_service_lookup        0042bf26 f   winnet.obj
 0001:0002af48       _next_socket               0042bf48 f   winnet.obj
 0001:0002af6d       _platform_get_x11_unix_address 0042bf6d f   winnet.obj
 0001:0002af9c       _select_result             0042bf9c f   winnet.obj
 0001:0002b317       _sk_addr_dup               0042c317 f   winnet.obj
 0001:0002b31e       _sk_addr_error             0042c31e f   winnet.obj
 0001:0002b326       _sk_addr_free              0042c326 f   winnet.obj
 0001:0002b35e       _sk_addrcopy               0042c35e f   winnet.obj
 0001:0002b41b       _sk_address_is_local       0042c41b f   winnet.obj
 0001:0002b4b6       _sk_addrtype               0042c4b6 f   winnet.obj
 0001:0002b4e5       _sk_cleanup                0042c4e5 f   winnet.obj
 0001:0002b54f       _sk_getaddr                0042c54f f   winnet.obj
 0001:0002b617       _sk_hostname_is_local      0042c617 f   winnet.obj
 0001:0002b65d       _sk_init                   0042c65d f   winnet.obj
 0001:0002bb47       _sk_namelookup             0042cb47 f   winnet.obj
 0001:0002bdc2       _sk_new                    0042cdc2 f   winnet.obj
 0001:0002be62       _sk_newlistener            0042ce62 f   winnet.obj
 0001:0002c0c4       _sk_nextaddr               0042d0c4 f   winnet.obj
 0001:0002c0f0       _sk_nonamelookup           0042d0f0 f   winnet.obj
 0001:0002c137       _sk_register               0042d137 f   winnet.obj
 0001:0002c1c9       _sk_startup                0042d1c9 f   winnet.obj
 0001:0002c1ff       _socket_writable           0042d1ff f   winnet.obj
 0001:0002c537       _try_send                  0042d537 f   winnet.obj
 0001:0002c687       _winsock_error_string      0042d687 f   winnet.obj
 0001:0002ca19       _noise_get_heavy           0042da19 f   winnoise.obj
 0001:0002cad2       _noise_get_light           0042dad2 f   winnoise.obj
 0001:0002cb23       _noise_regular             0042db23 f   winnoise.obj
 0001:0002cc1e       _noise_ultralight          0042dc1e f   winnoise.obj
 0001:0002cc64       _random_save_seed          0042dc64 f   winnoise.obj
 0001:0002cc97       _agent_exists              0042dc97 f   winpgntc.obj
 0001:0002ccab       _agent_query               0042dcab f   winpgntc.obj
 0001:0002ce5b       _get_user_sid              0042de5b f   winpgntc.obj
 0001:0002cf53       _init_advapi               0042df53 f   winpgntc.obj
 0001:0002d09f       _localproxy_gotdata        0042e09f f   winproxy.obj
 0001:0002d0dd       _localproxy_sentdata       0042e0dd f   winproxy.obj
 0001:0002d0f7       _platform_new_connection   0042e0f7 f   winproxy.obj
 0001:0002d2c8       _begin_wildcard_matching   0042e2c8 f   winsftp.obj
 0001:0002d398       _close_directory           0042e398 f   winsftp.obj
 0001:0002d3bd       _close_wfile               0042e3bd f   winsftp.obj
 0001:0002d3bd       _close_rfile               0042e3bd f   winsftp.obj
 0001:0002d3d3       _create_directory          0042e3d3 f   winsftp.obj
 0001:0002d3e6       _dir_file_cat              0042e3e6 f   winsftp.obj
 0001:0002d3fe       _do_eventsel_loop          0042e3fe f   winsftp.obj
 0001:0002d5e2       _do_select                 0042e5e2 f   winsftp.obj
 0001:0002d655       _file_type                 0042e655 f   winsftp.obj
 0001:0002d671       _finish_wildcard_matching  0042e671 f   winsftp.obj
 0001:0002d69f       _get_userpass_input        0042e69f f   winsftp.obj
 0001:0002d6c0       _main                      0042e6c0 f   winsftp.obj
 0001:0002d6c5       _open_directory            0042e6c5 f   winsftp.obj
 0001:0002d73d       _open_existing_file        0042e73d f   winsftp.obj
 0001:0002d800       _open_new_file             0042e800 f   winsftp.obj
 0001:0002d836       _read_filename             0042e836 f   winsftp.obj
 0001:0002d8d8       _read_from_file            0042e8d8 f   winsftp.obj
 0001:0002d902       _set_file_times            0042e902 f   winsftp.obj
 0001:0002d961       _ssh_sftp_loop_iteration   0042e961 f   winsftp.obj
 0001:0002da6b       _test_wildcard             0042ea6b f   winsftp.obj
 0001:0002dac1       _vet_filename              0042eac1 f   winsftp.obj
 0001:0002db0d       _wildcard_get_filename     0042eb0d f   winsftp.obj
 0001:0002db9a       _write_to_file             0042eb9a f   winsftp.obj
 0001:0002ddd7       _close_settings_r          0042edd7 f   winstore.obj
 0001:0002de93       _open_settings_r           0042ee93 f   winstore.obj
 0001:0002df17       _read_random_seed          0042ef17 f   winstore.obj
 0001:0002df96       _read_setting_filename     0042ef96 f   winstore.obj
 0001:0002dfc6       _read_setting_fontspec     0042efc6 f   winstore.obj
 0001:0002e090       _read_setting_i            0042f090 f   winstore.obj
 0001:0002e0d4       _read_setting_s            0042f0d4 f   winstore.obj
 0001:0002e13c       _store_host_key            0042f13c f   winstore.obj
 0001:0002e230       _verify_host_key           0042f230 f   winstore.obj
 0001:0002e459       _write_random_seed         0042f459 f   winstore.obj
 0001:0002e48a       _ltime                     0042f48a f   wintime.obj
 0001:0002e575       _x11_close                 0042f575 f   x11fwd.obj
 0001:0002e5b1       _x11_free_display          0042f5b1 f   x11fwd.obj
 0001:0002e656       _x11_init                  0042f656 f   x11fwd.obj
 0001:0002e762       _x11_override_throttle     0042f762 f   x11fwd.obj
 0001:0002e792       _x11_send                  0042f792 f   x11fwd.obj
 0001:0002eafa       _x11_setup_display         0042fafa f   x11fwd.obj
 0001:0002ee8d       _x11_unthrottle            0042fe8d f   x11fwd.obj
 0001:0002f0de       __fclose_nolock            004300de f   LIBCMT:fclose.obj
 0001:0002f14a       _fclose                    0043014a f   LIBCMT:fclose.obj
 0001:0002f1c1       _fgetc                     004301c1 f   LIBCMT:fgetc.obj
 0001:0002f2ba       __fsopen                   004302ba f   LIBCMT:fopen.obj
 0001:0002f37e       _fopen                     0043037e f   LIBCMT:fopen.obj
 0001:0002f393       _atoi                      00430393 f   LIBCMT:atox.obj
 0001:0002f39c       _atol                      0043039c f   LIBCMT:atox.obj
 0001:0002f3b0       _strcmp                    004303b0 f   LIBCMT:strcmp.obj
 0001:0002f440       _strlen                    00430440 f   LIBCMT:strlen.obj
 0001:0002f4d0       _strchr                    004304d0 f   LIBCMT:strchr.obj
 0001:0002f53e       ___from_strstr_to_strchr   0043053e     LIBCMT:strchr.obj
 0001:0002f600       _strncmp                   00430600 f   LIBCMT:strncmp.obj
 0001:0002f678       __wassert                  00430678 f   LIBCMT:wassert.obj
 0001:0002fd20       _memchr                    00430d20 f   LIBCMT:memchr.obj
 0001:0002fdd0       _memcpy                    00430dd0 f   LIBCMT:memcpy.obj
 0001:00030414       @__security_check_cookie@4 00431414 f   LIBCMT:secchk.obj
 0001:00030423       __fpmath                   00431423 f   LIBCMT:fpinit.obj
 0001:0003043a       __cfltcvt_init             0043143a f   LIBCMT:fpinit.obj
 0001:0003049a       ___initstdio               0043149a f   LIBCMT:_file.obj
 0001:0003050d       ___endstdio                0043150d f   LIBCMT:_file.obj
 0001:00030534       ___iob_func                00431534 f   LIBCMT:_file.obj
 0001:0003053a       __lock_file                0043153a f   LIBCMT:_file.obj
 0001:00030579       __lock_file2               00431579 f   LIBCMT:_file.obj
 0001:000305a9       __unlock_file              004315a9 f   LIBCMT:_file.obj
 0001:000305e3       __unlock_file2             004315e3 f   LIBCMT:_file.obj
 0001:00030610       __fflush_nolock            00431610 f   LIBCMT:fflush.obj
 0001:00030656       __flush                    00431656 f   LIBCMT:fflush.obj
 0001:000306ba       __flushall                 004316ba f   LIBCMT:fflush.obj
 0001:000306c3       _fflush                    004316c3 f   LIBCMT:fflush.obj
 0001:000307fc       _fprintf                   004317fc f   LIBCMT:fprintf.obj
 0001:0003090e       __fwrite_nolock            0043190e f   LIBCMT:fwrite.obj
 0001:00030a65       _fwrite                    00431a65 f   LIBCMT:fwrite.obj
 0001:00030ae3       _sprintf                   00431ae3 f   LIBCMT:sprintf.obj
 0001:00030b65       ??0_LocaleUpdate@@QAE@PAUlocaleinfo_struct@@@Z 00431b65 f i LIBCMT:_ctype.obj
 0001:00030bed       __isalnum_l                00431bed f i LIBCMT:_ctype.obj
 0001:00030c43       __isdigit_l                00431c43 f i LIBCMT:_ctype.obj
 0001:00030c93       __isprint_l                00431c93 f i LIBCMT:_ctype.obj
 0001:00030ce9       __isspace_l                00431ce9 f i LIBCMT:_ctype.obj
 0001:00030d39       __isxdigit_l               00431d39 f i LIBCMT:_ctype.obj
 0001:00030d8f       _isalnum                   00431d8f f i LIBCMT:_ctype.obj
 0001:00030dbc       _isdigit                   00431dbc f i LIBCMT:_ctype.obj
 0001:00030de7       _isprint                   00431de7 f i LIBCMT:_ctype.obj
 0001:00030e14       _isspace                   00431e14 f i LIBCMT:_ctype.obj
 0001:00030e3f       _isxdigit                  00431e3f f i LIBCMT:_ctype.obj
 0001:00030e6c       __tolower_l                00431e6c f   LIBCMT:tolower.obj
 0001:00030fad       _tolower                   00431fad f   LIBCMT:tolower.obj
 0001:00030fd9       __Strftime_l               00431fd9 f   LIBCMT:strftime.obj
 0001:000310fa       _strftime                  004320fa f   LIBCMT:strftime.obj
 0001:00031120       _strcpy                    00432120 f   LIBCMT:strcat.obj
 0001:00031130       _strcat                    00432130 f   LIBCMT:strcat.obj
 0001:00031218       _fgets                     00432218 f   LIBCMT:fgets.obj
 0001:00031357       __vsnprintf                00432357 f   LIBCMT:vsnprint.obj
 0001:00031372       __vsnprintf_l              00432372 f   LIBCMT:vsnprint.obj
 0001:00031640       _strtol                    00432640 f   LIBCMT:strtol.obj
 0001:0003166a       _strtoul                   0043266a f   LIBCMT:strtol.obj
 0001:00031694       _free                      00432694 f   LIBCMT:free.obj
 0001:000316cc       _malloc                    004326cc f   LIBCMT:malloc.obj
 0001:0003175e       _realloc                   0043275e f   LIBCMT:realloc.obj
 0001:00031810       _memset                    00432810 f   LIBCMT:memset.obj
 0001:000318a0       _memmove                   004328a0 f   LIBCMT:memmove.obj
 0001:00031ee4       _sscanf                    00432ee4 f   LIBCMT:sscanf.obj
 0001:00031f73       ___raise_securityfailure   00432f73 f   LIBCMT:gs_report.obj
 0001:00031fb0       ___report_gsfailure        00432fb0 f   LIBCMT:gs_report.obj
 0001:000320a9       ___report_rangecheckfailure 004330a9 f   LIBCMT:gs_report.obj
 0001:000320b5       ___report_securityfailure  004330b5 f   LIBCMT:gs_report.obj
 0001:00032183       ___copy_path_to_wide_string 00433183 f   LIBCMT:crt0dat.obj
 0001:00032233       ___crtCorExitProcess       00433233 f   LIBCMT:crt0dat.obj
 0001:00032265       ___crtExitProcess          00433265 f   LIBCMT:crt0dat.obj
 0001:0003227b       __amsg_exit                0043327b f   LIBCMT:crt0dat.obj
 0001:00032297       __c_exit                   00433297 f   LIBCMT:crt0dat.obj
 0001:000322a6       __cexit                    004332a6 f   LIBCMT:crt0dat.obj
 0001:000322b5       __cinit                    004332b5 f   LIBCMT:crt0dat.obj
 0001:00032346       __exit                     00433346 f   LIBCMT:crt0dat.obj
 0001:0003235a       __init_pointers            0043335a f   LIBCMT:crt0dat.obj
 0001:000323ae       __initterm_e               004333ae f   LIBCMT:crt0dat.obj
 0001:000323d0       __lockexit                 004333d0 f   LIBCMT:crt0dat.obj
 0001:000323d9       __unlockexit               004333d9 f   LIBCMT:crt0dat.obj
 0001:00032511       _exit                      00433511 f   LIBCMT:crt0dat.obj
 0001:00032530       _qsort                     00433530 f   LIBCMT:qsort.obj
 0001:0003285c       _fputc                     0043385c f   LIBCMT:fputc.obj
 0001:0003295d       __get_printf_count_output  0043395d f   LIBCMT:printf.obj
 0001:00032972       _printf                    00433972 f   LIBCMT:printf.obj
 0001:00032a1e       _vfprintf                  00433a1e f   LIBCMT:vfprintf.obj
 0001:00032a3b       _vfprintf_helper           00433a3b f   LIBCMT:vfprintf.obj
 0001:00032b50       _strcspn                   00433b50 f   LIBCMT:strcspn.obj
 0001:00032ba0       _strrchr                   00433ba0 f   LIBCMT:strrchr.obj
 0001:00032ce0       _strspn                    00433ce0 f   LIBCMT:strspn.obj
 0001:00032d26       __difftime64               00433d26 f   LIBCMT:difftm64.obj
 0001:00032d6d       __time64                   00433d6d f   LIBCMT:time64.obj
 0001:00032dc0       __alloca_probe             00433dc0     LIBCMT:chkstk.obj
 0001:00032dc0       __chkstk                   00433dc0 f   LIBCMT:chkstk.obj
 0001:00032df0       __ftol2_sse                00433df0 f   LIBCMT:ftol2.obj
 0001:00032df9       __ftol2_pentium4           00433df9 f   LIBCMT:ftol2.obj
 0001:00032e0c       __ftol2_sse_excpt          00433e0c f   LIBCMT:ftol2.obj
 0001:00032e26       __ftol2                    00433e26 f   LIBCMT:ftol2.obj
 0001:00032e9b       _memcmp                    00433e9b f   LIBCMT:memcmp.obj
 0001:00034620       _strncpy                   00435620 f   LIBCMT:strncpy.obj
 0001:00034744       _abort                     00435744 f   LIBCMT:abort.obj
 0001:00034790       __allmul                   00435790 f   LIBCMT:llmul.obj
 0001:000347d0       __allshl                   004357d0 f   LIBCMT:llshl.obj
 0001:000347f0       __aulldvrm                 004357f0 f   LIBCMT:ulldvrm.obj
 0001:00034890       __aullrem                  00435890 f   LIBCMT:ullrem.obj
 0001:00034905       __fread_nolock_s           00435905 f   LIBCMT:fread.obj
 0001:00034ac8       _fread                     00435ac8 f   LIBCMT:fread.obj
 0001:00034ae3       _fread_s                   00435ae3 f   LIBCMT:fread.obj
 0001:00034b74       __ungetc_nolock            00435b74 f   LIBCMT:ungetc.obj
 0001:00034c54       _ungetc                    00435c54 f   LIBCMT:ungetc.obj
 0001:00034cc0       _abs                       00435cc0 f   LIBCMT:abs.obj
 0001:00034ccd       _fputs                     00435ccd f   LIBCMT:fputs.obj
 0001:00034dd3       __getenv_helper_nolock     00435dd3 f   LIBCMT:getenv.obj
 0001:00034e57       _getenv                    00435e57 f   LIBCMT:getenv.obj
 0001:00034ee0       __aulldiv                  00435ee0 f   LIBCMT:ulldiv.obj
 0001:00034f48       _remove                    00435f48 f   LIBCMT:unlink.obj
 0001:00035103       _mainCRTStartup            00436103 f   LIBCMT:crt0.obj
 0001:0003510d       __call_reportfault         0043610d f   LIBCMT:invarg.obj
 0001:00035230       __initp_misc_invarg        00436230 f   LIBCMT:invarg.obj
 0001:0003523d       __invalid_parameter        0043623d f   LIBCMT:invarg.obj
 0001:00035268       __invalid_parameter_noinfo 00436268 f   LIBCMT:invarg.obj
 0001:00035278       __invoke_watson            00436278 f   LIBCMT:invarg.obj
 0001:000352a3       __fileno                   004362a3 f   LIBCMT:fileno.obj
 0001:000352c7       __close                    004362c7 f   LIBCMT:close.obj
 0001:00035391       __close_nolock             00436391 f   LIBCMT:close.obj
 0001:0003542b       ___doserrno                0043642b f   LIBCMT:dosmap.obj
 0001:0003543e       __dosmaperr                0043643e f   LIBCMT:dosmap.obj
 0001:0003545f       __errno                    0043645f f   LIBCMT:dosmap.obj
 0001:00035472       __get_errno_from_oserr     00436472 f   LIBCMT:dosmap.obj
 0001:000354b3       __freebuf                  004364b3 f   LIBCMT:_freebuf.obj
 0001:000354f0       __SEH_prolog4              004364f0 f   LIBCMT:sehprolg4.obj
 0001:00035535       __SEH_epilog4              00436535 f   LIBCMT:sehprolg4.obj
 0001:00035550       __except_handler4          00436550 f   LIBCMT:chandler4.obj
 0001:000356e5       __filbuf                   004366e5 f   LIBCMT:_filbuf.obj
 0001:00035806       __ioinit                   00436806 f   LIBCMT:ioinit.obj
 0001:00035ab4       __getstream                00436ab4 f   LIBCMT:stream.obj
 0001:00035bcc       __openfile                 00436bcc f   LIBCMT:_open.obj
 0001:00035e50       __local_unwind4            00436e50 f   LIBCMT:exsup4.obj
 0001:00035f26       __seh_longjmp_unwind4@4    00436f26 f   LIBCMT:exsup4.obj
 0001:00035f42       @_EH4_CallFilterFunc@8     00436f42 f   LIBCMT:exsup4.obj
 0001:00035f59       @_EH4_TransferToHandler@8  00436f59 f   LIBCMT:exsup4.obj
 0001:00035f72       @_EH4_GlobalUnwind2@8      00436f72 f   LIBCMT:exsup4.obj
 0001:00035f8b       @_EH4_LocalUnwind@16       00436f8b f   LIBCMT:exsup4.obj
 0001:00035fa2       ___isa_available_init      00436fa2 f   LIBCMT:cpu_disp.obj
 0001:000360db       _memcpy_s                  004370db f   LIBCMT:memcpy_s.obj
 0001:0003615a       _wcscat_s                  0043715a f   LIBCMT:wcscat_s.obj
 0001:000361c6       _wcscpy_s                  004371c6 f   LIBCMT:wcscpy_s.obj
 0001:00036222       _wcslen                    00437222 f   LIBCMT:wcslen.obj
 0001:0003623b       _wcsncat_s                 0043723b f   LIBCMT:wcsncat_s.obj
 0001:00036309       ___set_app_type            00437309 f   LIBCMT:errmode.obj
 0001:00036316       __set_error_mode           00437316 f   LIBCMT:errmode.obj
 0001:00036356       __itow_s                   00437356 f   LIBCMT:xtows.obj
 0001:00036472       _setvbuf                   00437472 f   LIBCMT:setvbuf.obj
 0001:00036578       _fwprintf                  00437578 f   LIBCMT:fwprintf.obj
 0001:00036609       __vswprintf_c_l            00437609 f   LIBCMT:vswprnc.obj
 0001:00036631       __vswprintf_helper         00437631 f   LIBCMT:vswprnc.obj
 0001:0003672a       ___get_sigabrt             0043772a f   LIBCMT:winsig.obj
 0001:00036737       __initp_misc_winsig        00437737 f   LIBCMT:winsig.obj
 0001:00036753       _raise                     00437753 f   LIBCMT:winsig.obj
 0001:00036944       ___crtMessageBoxW          00437944 f   LIBCMT:crtmboxw.obj
 0001:00036b26       __FF_MSGBANNER             00437b26 f   LIBCMT:crt0msg.obj
 0001:00036b5f       __GET_RTERRMSG             00437b5f f   LIBCMT:crt0msg.obj
 0001:00036b83       __NMSG_WRITE               00437b83 f   LIBCMT:crt0msg.obj
 0001:00036d3e       __cfltcvt                  00437d3e f   LIBCMT:cvt.obj
 0001:00036d5f       __cfltcvt_l                00437d5f f   LIBCMT:cvt.obj
 0001:00036de5       __cftoa_l                  00437de5 f   LIBCMT:cvt.obj
 0001:0003713f       __cftoe                    0043813f f   LIBCMT:cvt.obj
 0001:000372ac       __cftoe_l                  004382ac f   LIBCMT:cvt.obj
 0001:00037462       __cftof_l                  00438462 f   LIBCMT:cvt.obj
 0001:00037521       __cftog_l                  00438521 f   LIBCMT:cvt.obj
 0001:0003761e       __cropzeros                0043861e f   LIBCMT:cvt.obj
 0001:0003762f       __cropzeros_l              0043862f f   LIBCMT:cvt.obj
 0001:000376ad       __fassign                  004386ad f   LIBCMT:cvt.obj
 0001:000376c5       __fassign_l                004386c5 f   LIBCMT:cvt.obj
 0001:00037705       __forcdecpt                00438705 f   LIBCMT:cvt.obj
 0001:00037716       __forcdecpt_l              00438716 f   LIBCMT:cvt.obj
 0001:00037788       __positive                 00438788 f   LIBCMT:cvt.obj
 0001:000377ca       __setdefaultprecision      004387ca f   LIBCMT:fp8.obj
 0001:000377f1       __initp_misc_cfltcvt_tab   004387f1 f   LIBCMT:cmiscdat.obj
 0001:00037810       __fcloseall                00438810 f   LIBCMT:closeall.obj
 0001:000378ad       __lock                     004388ad f   LIBCMT:mlock.obj
 0001:000378e1       __mtdeletelocks            004388e1 f   LIBCMT:mlock.obj
 0001:00037935       __mtinitlocknum            00438935 f   LIBCMT:mlock.obj
 0001:000379dc       __mtinitlocks              004389dc f   LIBCMT:mlock.obj
 0001:00037a11       __unlock                   00438a11 f   LIBCMT:mlock.obj
 0001:00037a26       __calloc_crt               00438a26 f   LIBCMT:crtheap.obj
 0001:00037a70       __malloc_crt               00438a70 f   LIBCMT:crtheap.obj
 0001:00037ab9       __realloc_crt              00438ab9 f   LIBCMT:crtheap.obj
 0001:00037b05       __recalloc_crt             00438b05 f   LIBCMT:crtheap.obj
 0001:00037b55       __commit                   00438b55 f   LIBCMT:commit.obj
 0001:00037c3b       __write                    00438c3b f   LIBCMT:write.obj
 0001:00037d1d       __write_nolock             00438d1d f   LIBCMT:write.obj
 0001:00038547       __ftbuf                    00439547 f   LIBCMT:_sftbuf.obj
 0001:00038578       __stbuf                    00439578 f   LIBCMT:_sftbuf.obj
 0001:0003861e       __output_l                 0043961e f   LIBCMT:output.obj
 0001:00039290       __flsbuf                   0043a290 f   LIBCMT:_flsbuf.obj
 0001:000393dd       ___addlocaleref            0043a3dd f   LIBCMT:localref.obj
 0001:0003946d       ___freetlocinfo            0043a46d f   LIBCMT:localref.obj
 0001:000395c7       ___removelocaleref         0043a5c7 f   LIBCMT:localref.obj
 0001:00039662       ___updatetlocinfo          0043a662 f   LIBCMT:localref.obj
 0001:000396de       __updatetlocinfoEx_nolock  0043a6de f   LIBCMT:localref.obj
 0001:00039729       ___initmbctable            0043a729 f   LIBCMT:mbctype.obj
 0001:000399e4       ___updatetmbcinfo          0043a9e4 f   LIBCMT:mbctype.obj
 0001:00039a89       __setmbcp                  0043aa89 f   LIBCMT:mbctype.obj
 0001:00039c37       __setmbcp_nolock           0043ac37 f   LIBCMT:mbctype.obj
 0001:00039e2c       __isctype_l                0043ae2c f   LIBCMT:isctype.obj
 0001:00039edb       __freefls@4                0043aedb f   LIBCMT:tidtable.obj
 0001:0003a012       __getptd                   0043b012 f   LIBCMT:tidtable.obj
 0001:0003a02a       __getptd_noexit            0043b02a f   LIBCMT:tidtable.obj
 0001:0003a099       __initptd                  0043b099 f   LIBCMT:tidtable.obj
 0001:0003a14c       __mtinit                   0043b14c f   LIBCMT:tidtable.obj
 0001:0003a1c2       __mtterm                   0043b1c2 f   LIBCMT:tidtable.obj
 0001:0003a1df       __locterm                  0043b1df f   LIBCMT:wsetloca.obj
 0001:0003a231       __isleadbyte_l             0043b231 f i LIBCMT:_wctype.obj
 0001:0003a267       _isleadbyte                0043b267 f i LIBCMT:_wctype.obj
 0001:0003a461       ___crtLCMapStringA         0043b461 f   LIBCMT:a_map.obj
 0001:0003a4a5       __freea                    0043b4a5 f i LIBCMT:a_map.obj
 0001:0003a4c3       _strcpy_s                  0043b4c3 f   LIBCMT:strcpy_s.obj
 0001:0003af13       __Wcsftime_l               0043bf13 f   LIBCMT:wcsftime.obj
 0001:0003b054       __heap_init                0043c054 f   LIBCMT:heapinit.obj
 0001:0003b069       __callnewh                 0043c069 f   LIBCMT:handler.obj
 0001:0003b08f       __initp_heap_handler       0043c08f f   LIBCMT:handler.obj
 0001:0003b09c       __VEC_memset               0043c09c f   LIBCMT:p4_memset.obj
 0001:0003b206       __input_l                  0043c206 f   LIBCMT:input.obj
 0001:0003c322       __crt_debugger_hook        0043d322 f   LIBCMT:dbghook.obj
 0001:0003c32a       ___crtFlsAlloc             0043d32a f   LIBCMT:winapisupp.obj
 0001:0003c348       ___crtFlsFree              0043d348 f   LIBCMT:winapisupp.obj
 0001:0003c367       ___crtFlsGetValue          0043d367 f   LIBCMT:winapisupp.obj
 0001:0003c386       ___crtFlsSetValue          0043d386 f   LIBCMT:winapisupp.obj
 0001:0003c3a8       ___crtIsPackagedApp        0043d3a8 f   LIBCMT:winapisupp.obj
 0001:0003c3e6       ___crtLoadWinApiPointers   0043d3e6 f   LIBCMT:winapisupp.obj
 0001:0003c625       ___crtSetUnhandledExceptionFilter 0043d625 f   LIBCMT:winapisupp.obj
 0001:0003c633       ___crtTerminateProcess     0043d633 f   LIBCMT:winapisupp.obj
 0001:0003c648       ___crtUnhandledException   0043d648 f   LIBCMT:winapisupp.obj
 0001:0003c65e       __RTC_Initialize           0043d65e f   LIBCMT:initsect.obj
 0001:0003c67e       __RTC_Terminate            0043d67e f   LIBCMT:initsect.obj
 0001:0003c6a0       __FindPESection            0043d6a0 f   LIBCMT:pesect.obj
 0001:0003c6f0       __IsNonwritableInCurrentImage 0043d6f0 f   LIBCMT:pesect.obj
 0001:0003c7b0       __ValidateImageBase        0043d7b0 f   LIBCMT:pesect.obj
 0001:0003c7e1       ___onexitinit              0043d7e1 f   LIBCMT:onexit.obj
 0001:0003c810       __onexit                   0043d810 f   LIBCMT:onexit.obj
 0001:0003c906       _atexit                    0043d906 f   LIBCMT:onexit.obj
 0001:0003c91b       ?terminate@@YAXXZ          0043d91b f   LIBCMT:hooks.obj
 0001:0003c94f       __initp_eh_hooks           0043d94f f   LIBCMT:hooks.obj
 0001:0003c960       __initp_misc_purevirt      0043d960 f   LIBCMT:inithelp.obj
 0001:0003c96d       __initp_misc_rand_s        0043d96d f   LIBCMT:rand_s.obj
 0001:0003c97a       __read                     0043d97a f   LIBCMT:read.obj
 0001:0003ca82       __read_nolock              0043da82 f   LIBCMT:read.obj
 0001:0003d211       __getbuf                   0043e211 f   LIBCMT:_getbuf.obj
 0001:0003d257       _strnlen                   0043e257 f   LIBCMT:strlen_s.obj
 0001:0003d272       ___wtomb_environ           0043e272 f   LIBCMT:wtombenv.obj
 0001:0003d2ff       __mbsnbicoll               0043e2ff f   LIBCMT:mbsnbico.obj
 0001:0003d317       __mbsnbicoll_l             0043e317 f   LIBCMT:mbsnbico.obj
 0001:0003d3cb       __wremove                  0043e3cb f   LIBCMT:wunlink.obj
 0001:0003d3f9       ?__CxxUnhandledExceptionFilter@@YGJPAU_EXCEPTION_POINTERS@@@Z 0043e3f9 f   LIBCMT:unhandld.obj
 0001:0003d43a       ___CxxSetUnhandledExceptionFilter 0043e43a f   LIBCMT:unhandld.obj
 0001:0003d448       __XcptFilter               0043e448 f   LIBCMT:winxfltr.obj
 0001:0003d5a3       __setargv                  0043e5a3 f   LIBCMT:stdargv.obj
 0001:0003d7d0       __setenvp                  0043e7d0 f   LIBCMT:stdenvp.obj
 0001:0003d8b1       ___security_init_cookie    0043e8b1 f   LIBCMT:gs_support.obj
 0001:0003d94b       ___crtGetEnvironmentStringsA 0043e94b f   LIBCMT:a_env.obj
 0001:0003d9d6       ___lock_fhandle            0043e9d6 f   LIBCMT:osfinfo.obj
 0001:0003da62       __alloc_osfhnd             0043ea62 f   LIBCMT:osfinfo.obj
 0001:0003dc07       __free_osfhnd              0043ec07 f   LIBCMT:osfinfo.obj
 0001:0003dc8d       __get_osfhandle            0043ec8d f   LIBCMT:osfinfo.obj
 0001:0003dcf4       __set_osfhnd               0043ecf4 f   LIBCMT:osfinfo.obj
 0001:0003dd76       __unlock_fhandle           0043ed76 f   LIBCMT:osfinfo.obj
 0001:0003dd9c       __sopen_helper             0043ed9c f   LIBCMT:open.obj
 0001:0003de63       __sopen_nolock             0043ee63 f   LIBCMT:open.obj
 0001:0003deaf       __sopen_s                  0043eeaf f   LIBCMT:open.obj
 0001:0003decd       __mbsnbcmp                 0043eecd f   LIBCMT:mbsnbcmp.obj
 0001:0003dee5       __mbsnbcmp_l               0043eee5 f   LIBCMT:mbsnbcmp.obj
 0001:0003dffa       __mbsnbicmp                0043effa f   LIBCMT:mbsnbicm.obj
 0001:0003e012       __mbsnbicmp_l              0043f012 f   LIBCMT:mbsnbicm.obj
 0001:0003e1d0       __global_unwind2           0043f1d0 f   LIBCMT:exsup.obj
 0001:0003e235       __local_unwind2            0043f235 f   LIBCMT:exsup.obj
 0001:0003e2b9       __abnormal_termination     0043f2b9 f   LIBCMT:exsup.obj
 0001:0003e2dc       __NLG_Notify1              0043f2dc f   LIBCMT:exsup.obj
 0001:0003e2e5       __NLG_Notify               0043f2e5 f   LIBCMT:exsup.obj
 0001:0003e2fc       __NLG_Dispatch2            0043f2fc     LIBCMT:exsup.obj
 0001:0003e2fc       __NLG_Dispatch             0043f2fc     LIBCMT:exsup.obj
 0001:0003e304       __NLG_Call                 0043f304 f   LIBCMT:exsup.obj
 0001:0003e306       __NLG_Return2              0043f306     LIBCMT:exsup.obj
 0001:0003e307       __woutput_l                0043f307 f   LIBCMT:woutput.obj
 0001:0003effe       _wcsncpy_s                 0043fffe f   LIBCMT:wcsncpy_s.obj
 0001:0003f0bc       __fptostr                  004400bc f   LIBCMT:_fptostr.obj
 0001:0003f16c       __atodbl_l                 0044016c f   LIBCMT:atodbl.obj
 0001:0003f1f8       __atoflt_l                 004401f8 f   LIBCMT:atodbl.obj
 0001:0003f284       ___dtold                   00440284 f   LIBCMT:cfout.obj
 0001:0003f34a       __fltout2                  0044034a f   LIBCMT:cfout.obj
 0001:0003f3e0       __alldvrm                  004403e0 f   LIBCMT:lldvrm.obj
 0001:0003f4c0       __aullshr                  004404c0 f   LIBCMT:ullshr.obj
 0001:0003f4df       __controlfp_s              004404df f   LIBCMT:contrlfp.obj
 0001:0003f53c       __fptrap                   0044053c f   LIBCMT:crt0fp.obj
 0001:0003f545       __recalloc                 00440545 f   LIBCMT:recalloc.obj
 0001:0003f5ae       __calloc_impl              004405ae f   LIBCMT:calloc_impl.obj
 0001:0003f628       __isatty                   00440628 f   LIBCMT:isatty.obj
 0001:0003f67c       __lseeki64                 0044067c f   LIBCMT:lseeki64.obj
 0001:0003f778       __lseeki64_nolock          00440778 f   LIBCMT:lseeki64.obj
 0001:0003f7e9       __mbtowc_l                 004407e9 f   LIBCMT:mbtowc.obj
 0001:0003f8dc       _mbtowc                    004408dc f   LIBCMT:mbtowc.obj
 0001:0003f8f4       __putwch_nolock            004408f4 f   LIBCMT:putwch.obj
 0001:0003f935       __wctomb_s_l               00440935 f   LIBCMT:wctomb.obj
 0001:0003fa57       _wctomb_s                  00440a57 f   LIBCMT:wctomb.obj
 0001:0003fa72       ___free_lconv_mon          00440a72 f   LIBCMT:initmon.obj
 0001:0003fb6e       ___free_lconv_num          00440b6e f   LIBCMT:initnum.obj
 0001:0003fbd5       ___free_lc_time            00440bd5 f   LIBCMT:inittime.obj
 0001:00040041       ___crtGetStringTypeA       00441041 f   LIBCMT:a_str.obj
 0001:0004007f       ____lc_codepage_func       0044107f f   LIBCMT:initctyp.obj
 0001:000400a5       _wcsnlen                   004410a5 f   LIBCMT:wcslen_s.obj
 0001:000400c4       _GetTableIndexFromLocaleName 004410c4 f   LIBCMT:winapinls.obj
 0001:00040112       ___crtCompareStringEx      00441112 f   LIBCMT:winapinls.obj
 0001:0004015e       ___crtDownlevelLocaleNameToLCID 0044115e f   LIBCMT:winapinls.obj
 0001:00040188       ___crtGetDateFormatEx      00441188 f   LIBCMT:winapinls.obj
 0001:000401d1       ___crtGetTimeFormatEx      004411d1 f   LIBCMT:winapinls.obj
 0001:00040206       ___crtLCMapStringEx        00441206 f   LIBCMT:winapinls.obj
 0001:00040252       ___wcsnicmp_ascii          00441252 f   LIBCMT:winapinls.obj
 0001:000402c0       _iswctype                  004412c0 f   LIBCMT:iswctype.obj
 0001:00040320       __alloca_probe_16          00441320 f   LIBCMT:alloca16.obj
 0001:00040336       __alloca_probe_8           00441336     LIBCMT:alloca16.obj
 0001:0004034c       __wcsicmp                  0044134c f   LIBCMT:wcsicmp.obj
 0001:000403df       __wcsicmp_l                004413df f   LIBCMT:wcsicmp.obj
 0001:000404b8       ___tzset                   004414b8 f   LIBCMT:tzset.obj
 0001:0004083c       __mbstowcs_l_helper        0044183c f   LIBCMT:mbstowcs.obj
 0001:0004099b       __mbstowcs_s_l             0044199b f   LIBCMT:mbstowcs.obj
 0001:00040a77       ___daylight                00441a77 f   LIBCMT:timeset.obj
 0001:00040a7d       ___dstbias                 00441a7d f   LIBCMT:timeset.obj
 0001:00040a83       ___timezone                00441a83 f   LIBCMT:timeset.obj
 0001:00040a89       ___tzname                  00441a89 f   LIBCMT:timeset.obj
 0001:00040a8f       __get_daylight             00441a8f f   LIBCMT:timeset.obj
 0001:00040ab9       __get_dstbias              00441ab9 f   LIBCMT:timeset.obj
 0001:00040ae3       __get_timezone             00441ae3 f   LIBCMT:timeset.obj
 0001:00040b0d       __msize                    00441b0d f   LIBCMT:msize.obj
 0001:00040b3e       _strncpy_s                 00441b3e f   LIBCMT:strncpy_s.obj
 0001:00040be2       ___crtsetenv               00441be2 f   LIBCMT:setenv.obj
 0001:00040ee3       __strnicoll_l              00441ee3 f   LIBCMT:strnicol.obj
 0001:00041231       ___crtCompareStringA       00442231 f   LIBCMT:a_cmp.obj
 0001:000412c8       __ismbblead                004422c8 f   LIBCMT:ismbbyte.obj
 0001:0004136f       __wsopen_nolock            0044236f f   LIBCMT:wopen.obj
 0001:00041ac0       __strnicmp                 00442ac0 f   LIBCMT:strnicmp.obj
 0001:00041ac0       _strnicmp                  00442ac0 f   LIBCMT:strnicmp.obj
 0001:00041b2b       __strnicmp_l               00442b2b f   LIBCMT:strnicmp.obj
 0001:00041bda       __fputwc_nolock            00442bda f   LIBCMT:fputwc.obj
 0001:00041d5f       __ld12tod                  00442d5f f   LIBCMT:intrncvt.obj
 0001:000422cf       __ld12tof                  004432cf f   LIBCMT:intrncvt.obj
 0001:0004283f       ___strgtold12_l            0044383f f   LIBCMT:strgtold.obj
 0001:00042fbb       _$I10_OUTPUT               00443fbb f   LIBCMT:x10fout.obj
 0001:00043a28       __control87                00444a28 f i LIBCMT:ieee87.obj
 0001:00043dbf       ___termconout              00444dbf f   LIBCMT:initcon.obj
 0001:00043dd6       ___initconout              00444dd6 f   LIBCMT:initcon.obj
 0001:00043df5       __towlower_l               00444df5 f   LIBCMT:towlower.obj
 0001:00043ea7       __strdup                   00444ea7 f   LIBCMT:strdup.obj
 0001:00043ef7       __mbschr                   00444ef7 f   LIBCMT:mbschr.obj
 0001:00043f0c       __mbschr_l                 00444f0c f   LIBCMT:mbschr.obj
 0001:00043fa7       __chsize_nolock            00444fa7 f   LIBCMT:chsize.obj
 0001:0004415b       __get_fmode                0044515b f   LIBCMT:setmode.obj
 0001:00044185       __setmode_nolock           00445185 f   LIBCMT:setmode.obj
 0001:00044260       ___ascii_strnicmp          00445260 f   LIBCMT:_strnicm.obj
 0001:000442c1       __flswbuf                  004452c1 f   LIBCMT:_flswbuf.obj
 0001:00044421       ___mtold12                 00445421 f   LIBCMT:mantold.obj
 0001:00044603       ___set_fpsr_sse2           00445603 f   LIBCMT:fpctrl.obj
 0001:00044679       ___crtLCMapStringW         00445679 f   LIBCMT:w_map.obj
 0001:000446a8       _IsProcessorFeaturePresent@4 004456a8 f   kernel32:KERNEL32.dll
 0001:000446ae       _RtlUnwind@16              004456ae f   kernel32:KERNEL32.dll
 0001:000446b4       ___ascii_stricmp           004456b4 f   LIBCMT:stricmp.obj
 0001:000446ed       __stricmp                  004456ed f   LIBCMT:stricmp.obj
 0001:000446ed       _stricmp                   004456ed f   LIBCMT:stricmp.obj
 0001:00044734       __stricmp_l                00445734 f   LIBCMT:stricmp.obj
 0002:00000000       __imp__RegCloseKey@4       00446000     advapi32:ADVAPI32.dll
 0002:00000004       __imp__RegOpenKeyA@12      00446004     advapi32:ADVAPI32.dll
 0002:00000008       __imp__RegQueryValueExA@24 00446008     advapi32:ADVAPI32.dll
 0002:0000000c       __imp__GetUserNameA@8      0044600c     advapi32:ADVAPI32.dll
 0002:00000010       __imp__CopySid@12          00446010     advapi32:ADVAPI32.dll
 0002:00000014       __imp__GetLengthSid@4      00446014     advapi32:ADVAPI32.dll
 0002:00000018       __imp__RegCreateKeyA@12    00446018     advapi32:ADVAPI32.dll
 0002:0000001c       __imp__RegSetValueExA@24   0044601c     advapi32:ADVAPI32.dll
 0002:00000020       \177ADVAPI32_NULL_THUNK_DATA 00446020     advapi32:ADVAPI32.dll
 0002:00000024       __imp__SetEndOfFile@4      00446024     kernel32:KERNEL32.dll
 0002:00000028       __imp__CreateFileW@28      00446028     kernel32:KERNEL32.dll
 0002:0000002c       __imp__SetEnvironmentVariableA@8 0044602c     kernel32:KERNEL32.dll
 0002:00000030       __imp__HeapSize@12         00446030     kernel32:KERNEL32.dll
 0002:00000034       __imp__GetTimeZoneInformation@4 00446034     kernel32:KERNEL32.dll
 0002:00000038       __imp__LCMapStringW@24     00446038     kernel32:KERNEL32.dll
 0002:0000003c       __imp__CompareStringW@24   0044603c     kernel32:KERNEL32.dll
 0002:00000040       __imp__GetTimeFormatW@24   00446040     kernel32:KERNEL32.dll
 0002:00000044       __imp__GetTickCount@0      00446044     kernel32:KERNEL32.dll
 0002:00000048       __imp__GetStdHandle@4      00446048     kernel32:KERNEL32.dll
 0002:0000004c       __imp__ReadFile@20         0044604c     kernel32:KERNEL32.dll
 0002:00000050       __imp__WriteFile@20        00446050     kernel32:KERNEL32.dll
 0002:00000054       __imp__GetConsoleMode@8    00446054     kernel32:KERNEL32.dll
 0002:00000058       __imp__SetConsoleMode@8    00446058     kernel32:KERNEL32.dll
 0002:0000005c       __imp__FreeLibrary@4       0044605c     kernel32:KERNEL32.dll
 0002:00000060       __imp__GetProcAddress@8    00446060     kernel32:KERNEL32.dll
 0002:00000064       __imp__LoadLibraryA@4      00446064     kernel32:KERNEL32.dll
 0002:00000068       __imp__CloseHandle@4       00446068     kernel32:KERNEL32.dll
 0002:0000006c       __imp__GetLastError@0      0044606c     kernel32:KERNEL32.dll
 0002:00000070       __imp__GetOverlappedResult@16 00446070     kernel32:KERNEL32.dll
 0002:00000074       __imp__SetEvent@4          00446074     kernel32:KERNEL32.dll
 0002:00000078       __imp__WaitForSingleObject@8 00446078     kernel32:KERNEL32.dll
 0002:0000007c       __imp__CreateEventA@16     0044607c     kernel32:KERNEL32.dll
 0002:00000080       __imp__CreateThread@24     00446080     kernel32:KERNEL32.dll
 0002:00000084       __imp__GetSystemDirectoryA@8 00446084     kernel32:KERNEL32.dll
 0002:00000088       __imp__FormatMessageA@28   00446088     kernel32:KERNEL32.dll
 0002:0000008c       __imp__FindClose@4         0044608c     kernel32:KERNEL32.dll
 0002:00000090       __imp__FindFirstFileA@8    00446090     kernel32:KERNEL32.dll
 0002:00000094       __imp__FindNextFileA@8     00446094     kernel32:KERNEL32.dll
 0002:00000098       __imp__QueryPerformanceCounter@4 00446098     kernel32:KERNEL32.dll
 0002:0000009c       __imp__GetProcessTimes@20  0044609c     kernel32:KERNEL32.dll
 0002:000000a0       __imp__GetCurrentProcess@0 004460a0     kernel32:KERNEL32.dll
 0002:000000a4       __imp__GetCurrentProcessId@0 004460a4     kernel32:KERNEL32.dll
 0002:000000a8       __imp__GetCurrentThread@0  004460a8     kernel32:KERNEL32.dll
 0002:000000ac       __imp__GetThreadTimes@20   004460ac     kernel32:KERNEL32.dll
 0002:000000b0       __imp__GetSystemTime@4     004460b0     kernel32:KERNEL32.dll
 0002:000000b4       __imp__GetSystemTimeAdjustment@12 004460b4     kernel32:KERNEL32.dll
 0002:000000b8       __imp__GetWindowsDirectoryA@8 004460b8     kernel32:KERNEL32.dll
 0002:000000bc       __imp__GlobalMemoryStatus@4 004460bc     kernel32:KERNEL32.dll
 0002:000000c0       __imp__GetCurrentThreadId@0 004460c0     kernel32:KERNEL32.dll
 0002:000000c4       __imp__OpenProcess@12      004460c4     kernel32:KERNEL32.dll
 0002:000000c8       __imp__MapViewOfFile@20    004460c8     kernel32:KERNEL32.dll
 0002:000000cc       __imp__UnmapViewOfFile@4   004460cc     kernel32:KERNEL32.dll
 0002:000000d0       __imp__LocalAlloc@8        004460d0     kernel32:KERNEL32.dll
 0002:000000d4       __imp__LocalFree@4         004460d4     kernel32:KERNEL32.dll
 0002:000000d8       __imp__CreateFileMappingA@24 004460d8     kernel32:KERNEL32.dll
 0002:000000dc       __imp__SetHandleInformation@12 004460dc     kernel32:KERNEL32.dll
 0002:000000e0       __imp__CreatePipe@16       004460e0     kernel32:KERNEL32.dll
 0002:000000e4       __imp__CreateProcessA@40   004460e4     kernel32:KERNEL32.dll
 0002:000000e8       __imp__CreateDirectoryA@8  004460e8     kernel32:KERNEL32.dll
 0002:000000ec       __imp__CreateFileA@28      004460ec     kernel32:KERNEL32.dll
 0002:000000f0       __imp__GetFileAttributesA@4 004460f0     kernel32:KERNEL32.dll
 0002:000000f4       __imp__GetFileSize@8       004460f4     kernel32:KERNEL32.dll
 0002:000000f8       __imp__GetFileTime@16      004460f8     kernel32:KERNEL32.dll
 0002:000000fc       __imp__SetFileTime@16      004460fc     kernel32:KERNEL32.dll
 0002:00000100       __imp__WaitForMultipleObjects@16 00446100     kernel32:KERNEL32.dll
 0002:00000104       __imp__GetEnvironmentVariableA@12 00446104     kernel32:KERNEL32.dll
 0002:00000108       __imp__GetLocalTime@4      00446108     kernel32:KERNEL32.dll
 0002:0000010c       __imp__GetFileType@4       0044610c     kernel32:KERNEL32.dll
 0002:00000110       __imp__GetModuleFileNameW@12 00446110     kernel32:KERNEL32.dll
 0002:00000114       __imp__GetModuleHandleExW@12 00446114     kernel32:KERNEL32.dll
 0002:00000118       __imp__WriteConsoleW@20    00446118     kernel32:KERNEL32.dll
 0002:0000011c       __imp__EnterCriticalSection@4 0044611c     kernel32:KERNEL32.dll
 0002:00000120       __imp__LeaveCriticalSection@4 00446120     kernel32:KERNEL32.dll
 0002:00000124       __imp__MultiByteToWideChar@24 00446124     kernel32:KERNEL32.dll
 0002:00000128       __imp__WideCharToMultiByte@32 00446128     kernel32:KERNEL32.dll
 0002:0000012c       __imp__HeapFree@12         0044612c     kernel32:KERNEL32.dll
 0002:00000130       __imp__HeapAlloc@12        00446130     kernel32:KERNEL32.dll
 0002:00000134       __imp__HeapReAlloc@16      00446134     kernel32:KERNEL32.dll
 0002:00000138       __imp__IsDebuggerPresent@0 00446138     kernel32:KERNEL32.dll
 0002:0000013c       __imp__IsProcessorFeaturePresent@4 0044613c     kernel32:KERNEL32.dll
 0002:00000140       __imp__EncodePointer@4     00446140     kernel32:KERNEL32.dll
 0002:00000144       __imp__DecodePointer@4     00446144     kernel32:KERNEL32.dll
 0002:00000148       __imp__InterlockedDecrement@4 00446148     kernel32:KERNEL32.dll
 0002:0000014c       __imp__ExitProcess@4       0044614c     kernel32:KERNEL32.dll
 0002:00000150       __imp__AreFileApisANSI@0   00446150     kernel32:KERNEL32.dll
 0002:00000154       __imp__GetSystemTimeAsFileTime@4 00446154     kernel32:KERNEL32.dll
 0002:00000158       __imp__GetCommandLineA@0   00446158     kernel32:KERNEL32.dll
 0002:0000015c       __imp__InitializeCriticalSectionAndSpinCount@8 0044615c     kernel32:KERNEL32.dll
 0002:00000160       __imp__DeleteCriticalSection@4 00446160     kernel32:KERNEL32.dll
 0002:00000164       __imp__GetStartupInfoW@4   00446164     kernel32:KERNEL32.dll
 0002:00000168       __imp__RtlUnwind@16        00446168     kernel32:KERNEL32.dll
 0002:0000016c       __imp__OutputDebugStringW@4 0044616c     kernel32:KERNEL32.dll
 0002:00000170       __imp__LoadLibraryExW@12   00446170     kernel32:KERNEL32.dll
 0002:00000174       __imp__LoadLibraryW@4      00446174     kernel32:KERNEL32.dll
 0002:00000178       __imp__Sleep@4             00446178     kernel32:KERNEL32.dll
 0002:0000017c       __imp__FlushFileBuffers@4  0044617c     kernel32:KERNEL32.dll
 0002:00000180       __imp__GetConsoleCP@0      00446180     kernel32:KERNEL32.dll
 0002:00000184       __imp__InterlockedIncrement@4 00446184     kernel32:KERNEL32.dll
 0002:00000188       __imp__IsValidCodePage@4   00446188     kernel32:KERNEL32.dll
 0002:0000018c       __imp__GetACP@0            0044618c     kernel32:KERNEL32.dll
 0002:00000190       __imp__GetOEMCP@0          00446190     kernel32:KERNEL32.dll
 0002:00000194       __imp__GetCPInfo@8         00446194     kernel32:KERNEL32.dll
 0002:00000198       __imp__SetLastError@4      00446198     kernel32:KERNEL32.dll
 0002:0000019c       __imp__GetProcessHeap@0    0044619c     kernel32:KERNEL32.dll
 0002:000001a0       __imp__UnhandledExceptionFilter@4 004461a0     kernel32:KERNEL32.dll
 0002:000001a4       __imp__SetUnhandledExceptionFilter@4 004461a4     kernel32:KERNEL32.dll
 0002:000001a8       __imp__TerminateProcess@8  004461a8     kernel32:KERNEL32.dll
 0002:000001ac       __imp__TlsAlloc@0          004461ac     kernel32:KERNEL32.dll
 0002:000001b0       __imp__TlsGetValue@4       004461b0     kernel32:KERNEL32.dll
 0002:000001b4       __imp__TlsSetValue@8       004461b4     kernel32:KERNEL32.dll
 0002:000001b8       __imp__TlsFree@4           004461b8     kernel32:KERNEL32.dll
 0002:000001bc       __imp__GetModuleHandleW@4  004461bc     kernel32:KERNEL32.dll
 0002:000001c0       __imp__ReadConsoleW@20     004461c0     kernel32:KERNEL32.dll
 0002:000001c4       __imp__DeleteFileW@4       004461c4     kernel32:KERNEL32.dll
 0002:000001c8       __imp__GetModuleFileNameA@12 004461c8     kernel32:KERNEL32.dll
 0002:000001cc       __imp__GetEnvironmentStringsW@0 004461cc     kernel32:KERNEL32.dll
 0002:000001d0       __imp__FreeEnvironmentStringsW@4 004461d0     kernel32:KERNEL32.dll
 0002:000001d4       __imp__SetStdHandle@8      004461d4     kernel32:KERNEL32.dll
 0002:000001d8       __imp__SetFilePointerEx@20 004461d8     kernel32:KERNEL32.dll
 0002:000001dc       __imp__GetStringTypeW@16   004461dc     kernel32:KERNEL32.dll
 0002:000001e0       __imp__GetDateFormatW@24   004461e0     kernel32:KERNEL32.dll
 0002:000001e4       \177KERNEL32_NULL_THUNK_DATA 004461e4     kernel32:KERNEL32.dll
 0002:000001e8       __imp__FindWindowA@8       004461e8     user32:USER32.dll
 0002:000001ec       __imp__SendMessageA@16     004461ec     user32:USER32.dll
 0002:000001f0       __imp__GetCursorPos@4      004461f0     user32:USER32.dll
 0002:000001f4       __imp__GetForegroundWindow@0 004461f4     user32:USER32.dll
 0002:000001f8       __imp__GetCapture@0        004461f8     user32:USER32.dll
 0002:000001fc       __imp__GetQueueStatus@4    004461fc     user32:USER32.dll
 0002:00000200       __imp__GetClipboardOwner@0 00446200     user32:USER32.dll
 0002:00000204       \177USER32_NULL_THUNK_DATA 00446204     user32:USER32.dll
 0002:00000208       ___xc_a                    00446208     LIBCMT:crt0init.obj
 0002:0000020c       ___xc_z                    0044620c     LIBCMT:crt0init.obj
 0002:00000210       ___xi_a                    00446210     LIBCMT:crt0init.obj
 0002:00000228       ___xi_z                    00446228     LIBCMT:crt0init.obj
 0002:0000022c       ___xp_a                    0044622c     LIBCMT:crt0init.obj
 0002:0000023c       ___xp_z                    0044623c     LIBCMT:crt0init.obj
 0002:00000240       ___xt_a                    00446240     LIBCMT:crt0init.obj
 0002:00000244       ___xt_z                    00446244     LIBCMT:crt0init.obj
 0002:00000250       _be_default_protocol       00446250     be_ssh.obj
 0002:00000254       ??_C@_0CH@BBHEKEDE@option?5?$CC?$CFs?$CC?5not?5available?5in?5thi@ 00446254     cmdline.obj
 0002:0000027c       ??_C@_05ICAMDKBJ@?9load?$AA@ 0044627c     cmdline.obj
 0002:00000284       ??_C@_04ICJFNLID@?9ssh?$AA@ 00446284     cmdline.obj
 0002:0000028c       ??_C@_07DKMEJCIF@?9telnet?$AA@ 0044628c     cmdline.obj
 0002:00000294       ??_C@_07PNIEMAJC@?9rlogin?$AA@ 00446294     cmdline.obj
 0002:0000029c       ??_C@_04OINBMFGG@?9raw?$AA@ 0044629c     cmdline.obj
 0002:000002a4       ??_C@_07DIHGINNE@?9serial?$AA@ 004462a4     cmdline.obj
 0002:000002ac       ??_C@_02EJEOCNCO@?9v?$AA@  004462ac     cmdline.obj
 0002:000002b0       ??_C@_02PJGDNHPF@?9l?$AA@  004462b0     cmdline.obj
 0002:000002b4       ??_C@_08FCOAIJJN@?9loghost?$AA@ 004462b4     cmdline.obj
 0002:000002c0       ??_C@_02GMOHPDFH@?9L?$AA@  004462c0     cmdline.obj
 0002:000002c4       ??_C@_02LIKGMMII@?9R?$AA@  004462c4     cmdline.obj
 0002:000002c8       ??_C@_02KEDOHJFP@?9D?$AA@  004462c8     cmdline.obj
 0002:000002cc       ??_C@_0DA@NDNLCDCP@?9?$CFc?5expects?5at?5least?5two?5colons?5@ 004462cc     cmdline.obj
 0002:000002fc       ??_C@_06JHCNKDE@?$CFc?$CF?4?$CKs?$AA@ 004462fc     cmdline.obj
 0002:00000304       ??_C@_03DFONGJFI@L?$CFs?$AA@ 00446304     cmdline.obj
 0002:00000308       ??_C@_01CKDDGHAB@D?$AA@    00446308     cmdline.obj
 0002:0000030c       ??_C@_03IAHKIJEO@?9nc?$AA@ 0044630c     cmdline.obj
 0002:00000310       ??_C@_0CJ@EADAEIPK@?9nc?5expects?5argument?5of?5form?5?8ho@ 00446310     cmdline.obj
 0002:0000033c       ??_C@_04EBNJJJJI@?$CF?4?$CKs?$AA@ 0044633c     cmdline.obj
 0002:00000344       ??_C@_02OAHIOGLE@?9m?$AA@  00446344     cmdline.obj
 0002:00000348       ??_C@_01KDCPPGHE@r?$AA@    00446348     cmdline.obj
 0002:0000034c       ??_C@_0CB@LNEDGKNN@unable?5to?5open?5command?5file?5?$CC?$CFs?$CC@ 0044634c     cmdline.obj
 0002:0000036d       ??_C@_00CNPNBAHC@?$AA@     0044636d     cmdline.obj
 0002:00000370       ??_C@_02IKJAKOAK@?9P?$AA@  00446370     cmdline.obj
 0002:00000374       ??_C@_03LIGMNAGB@?9pw?$AA@ 00446374     cmdline.obj
 0002:00000378       ??_C@_0DG@HOAILDLM@the?5?9pw?5option?5can?5only?5be?5used?5@ 00446378     cmdline.obj
 0002:000003b0       ??_C@_06CBKBFCJG@?9agent?$AA@ 004463b0     cmdline.obj
 0002:000003b8       ??_C@_07PJJOKNHB@?9pagent?$AA@ 004463b8     cmdline.obj
 0002:000003c0       ??_C@_08CFHKFFAF@?9pageant?$AA@ 004463c0     cmdline.obj
 0002:000003cc       ??_C@_08DPIPCKGL@?9noagent?$AA@ 004463cc     cmdline.obj
 0002:000003d8       ??_C@_09DKIMANKI@?9nopagent?$AA@ 004463d8     cmdline.obj
 0002:000003e4       ??_C@_0L@NKLGCNNF@?9nopageant?$AA@ 004463e4     cmdline.obj
 0002:000003f0       ??_C@_02NJEJINBK@?9A?$AA@  004463f0     cmdline.obj
 0002:000003f4       ??_C@_02EMMNKJLI@?9a?$AA@  004463f4     cmdline.obj
 0002:000003f8       ??_C@_02ECEJCEAC@?9X?$AA@  004463f8     cmdline.obj
 0002:000003fc       ??_C@_02NHMNAAKA@?9x?$AA@  004463fc     cmdline.obj
 0002:00000400       ??_C@_02HLHIEPKM@?9t?$AA@  00446400     cmdline.obj
 0002:00000404       ??_C@_02OOPMGLAO@?9T?$AA@  00446404     cmdline.obj
 0002:00000408       ??_C@_02FONBJBNF@?9N?$AA@  00446408     cmdline.obj
 0002:0000040c       ??_C@_02OLHPOPJI@?9C?$AA@  0044640c     cmdline.obj
 0002:00000410       ??_C@_02PGHGPEOM@?91?$AA@  00446410     cmdline.obj
 0002:00000414       ??_C@_02NNFLKHCP@?92?$AA@  00446414     cmdline.obj
 0002:00000418       ??_C@_02IEBECDLA@?9i?$AA@  00446418     cmdline.obj
 0002:0000041c       ??_C@_02ILABAAKJ@?94?$AA@  0044641c     cmdline.obj
 0002:00000420       ??_C@_05OBEEBKAB@?9ipv4?$AA@ 00446420     cmdline.obj
 0002:00000428       ??_C@_02LJDHGCCL@?96?$AA@  00446428     cmdline.obj
 0002:0000042c       ??_C@_05NDHCHIID@?9ipv6?$AA@ 0044642c     cmdline.obj
 0002:00000434       ??_C@_07LBHAKCPO@?9sercfg?$AA@ 00446434     cmdline.obj
 0002:0000043c       ??_C@_0DN@IIMHHOGI@the?5?9sercfg?5option?5can?5only?5be?5u@ 0044643c     cmdline.obj
 0002:0000047c       ??_C@_0CE@OGBPPBHP@Unrecognised?5suboption?5?$CC?9sercfg?5@ 0044647c     cmdline.obj
 0002:000004a0       ??_C@_03GMOBGHL@1?45?$AA@  004464a0     cmdline.obj
 0002:000004a4       ??_C@_0CE@PKDJFCAP@Unrecognised?5suboption?5?$CC?9sercfg?5@ 004464a4     cmdline.obj
 0002:000004c8       ??_C@_1BE@LPNLDGNE@?$AA?4?$AA?4?$AA?2?$AAc?$AAo?$AAn?$AAf?$AA?4?$AAc?$AA?$AA@ 004464c8     conf.obj
 0002:000004dc       ??_C@_1CE@CCKFHKHB@?$AAo?$AAl?$AAd?$AAe?$AAn?$AAt?$AAr?$AAy?$AA?5?$AA?$DN?$AA?$DN?$AA?5?$AAe?$AAn?$AAt?$AAr?$AAy?$AA?$AA@ 004464dc     conf.obj
 0002:00000500       ??_C@_1EE@EEKAMFKN@?$AAs?$AAu?$AAb?$AAk?$AAe?$AAy?$AAt?$AAy?$AAp?$AAe?$AAs?$AA?$FL?$AAp?$AAr?$AAi?$AAm?$AAa?$AAr?$AAy?$AA?$FN?$AA?5?$AA?$DN?$AA?$DN?$AA?5?$AAT?$AAY?$AAP?$AAE?$AA_?$AAN?$AAO?$AAN@ 00446500     conf.obj
 0002:00000548       ??_C@_1EA@EHPHCNLC@?$AAv?$AAa?$AAl?$AAu?$AAe?$AAt?$AAy?$AAp?$AAe?$AAs?$AA?$FL?$AAp?$AAr?$AAi?$AAm?$AAa?$AAr?$AAy?$AA?$FN?$AA?5?$AA?$DN?$AA?$DN?$AA?5?$AAT?$AAY?$AAP?$AAE?$AA_?$AAI?$AAN?$AAT?$AA?$AA@ 00446548     conf.obj
 0002:00000588       ??_C@_1M@IDDCMKPN@?$AAe?$AAn?$AAt?$AAr?$AAy?$AA?$AA@ 00446588     conf.obj
 0002:00000598       ??_C@_1EC@EKCJNHGB@?$AAs?$AAu?$AAb?$AAk?$AAe?$AAy?$AAt?$AAy?$AAp?$AAe?$AAs?$AA?$FL?$AAp?$AAr?$AAi?$AAm?$AAa?$AAr?$AAy?$AA?$FN?$AA?5?$AA?$DN?$AA?$DN?$AA?5?$AAT?$AAY?$AAP?$AAE?$AA_?$AAI?$AAN?$AAT@ 00446598     conf.obj
 0002:000005e0       ??_C@_1EA@CNKKHOHA@?$AAv?$AAa?$AAl?$AAu?$AAe?$AAt?$AAy?$AAp?$AAe?$AAs?$AA?$FL?$AAp?$AAr?$AAi?$AAm?$AAa?$AAr?$AAy?$AA?$FN?$AA?5?$AA?$DN?$AA?$DN?$AA?5?$AAT?$AAY?$AAP?$AAE?$AA_?$AAS?$AAT?$AAR?$AA?$AA@ 004465e0     conf.obj
 0002:00000620       ??_C@_1EC@CAHEIEKD@?$AAs?$AAu?$AAb?$AAk?$AAe?$AAy?$AAt?$AAy?$AAp?$AAe?$AAs?$AA?$FL?$AAp?$AAr?$AAi?$AAm?$AAa?$AAr?$AAy?$AA?$FN?$AA?5?$AA?$DN?$AA?$DN?$AA?5?$AAT?$AAY?$AAP?$AAE?$AA_?$AAS?$AAT?$AAR@ 00446620     conf.obj
 0002:00000668       ??_C@_1EK@BFKJCCO@?$AAv?$AAa?$AAl?$AAu?$AAe?$AAt?$AAy?$AAp?$AAe?$AAs?$AA?$FL?$AAp?$AAr?$AAi?$AAm?$AAa?$AAr?$AAy?$AA?$FN?$AA?5?$AA?$DN?$AA?$DN?$AA?5?$AAT?$AAY?$AAP?$AAE?$AA_?$AAF?$AAI?$AAL?$AAE@ 00446668     conf.obj
 0002:000006b8       ??_C@_1EC@EIKPDFKD@?$AAv?$AAa?$AAl?$AAu?$AAe?$AAt?$AAy?$AAp?$AAe?$AAs?$AA?$FL?$AAp?$AAr?$AAi?$AAm?$AAa?$AAr?$AAy?$AA?$FN?$AA?5?$AA?$DN?$AA?$DN?$AA?5?$AAT?$AAY?$AAP?$AAE?$AA_?$AAF?$AAO?$AAN?$AAT@ 004466b8     conf.obj
 0002:000006fc       ??_C@_0DI@KPPHJCFH@Proxy?5error?3?5SOCKS?5proxy?5wants?5a@ 004466fc     cproxy.obj
 0002:00000734       ??_C@_0DG@GODOGCME@Proxy?5error?3?5SOCKS?5proxy?5won?8t?5n@ 00446734     cproxy.obj
 0002:0000076c       ??_C@_0DF@CKPHGFEO@Proxy?5error?3?5SOCKS?5proxy?5refused@ 0044676c     cproxy.obj
 0002:000007a8       ??_C@_0EO@DJFMIEOP@Proxy?5error?3?5Server?5chose?5CHAP?5o@ 004467a8     cproxy.obj
 0002:000007f8       ??_C@_0EG@HFGGNNBB@Proxy?5error?3?5Server?5chose?5CHAP?5a@ 004467f8     cproxy.obj
 0002:00000840       ??_C@_1BG@GLEHJOGK@?$AA?4?$AA?4?$AA?2?$AAi?$AAn?$AAt?$AA6?$AA4?$AA?4?$AAc?$AA?$AA@ 00446840     int64.obj
 0002:00000858       ??_C@_1BE@MBHIFPLD@?$AAs?$AAt?$AAa?$AAr?$AAt?$AA?5?$AA?$DO?$AA?5?$AA0?$AA?$AA@ 00446858     int64.obj
 0002:00000870       __real@41f0000000000000    00446870     int64.obj
 0002:00000880       __xmm@41f00000000000000000000000000000 00446880     int64.obj
 0002:00000890       ??_C@_1BK@NLGMELOF@?$AA?4?$AA?4?$AA?2?$AAl?$AAo?$AAg?$AAg?$AAi?$AAn?$AAg?$AA?4?$AAc?$AA?$AA@ 00446890     logging.obj
 0002:000008ac       ??_C@_1BE@DNNDFKKD@?$AAc?$AAt?$AAx?$AA?9?$AA?$DO?$AAl?$AAg?$AAf?$AAp?$AA?$AA@ 004468ac     logging.obj
 0002:000008c0       ??_C@_0DI@LDOGMIFP@Disabled?5writing?5session?5log?5due@ 004468c0     logging.obj
 0002:000008f8       ??_C@_02BOGAIONP@ab?$AA@   004468f8     logging.obj
 0002:000008fc       ??_C@_02GMLFBBN@wb?$AA@    004468fc     logging.obj
 0002:00000900       ??_C@_0BC@CCPCBAML@?$CFY?4?$CFm?4?$CFd?5?$CFH?3?$CFM?3?$CFS?$AA@ 00446900     logging.obj
 0002:00000914       ??_C@_0DP@OEIPDIOF@?$DN?$HO?$DN?$HO?$DN?$HO?$DN?$HO?$DN?$HO?$DN?$HO?$DN?$HO?$DN?$HO?$DN?$HO?$DN?$HO?$DN?$HO?$DN?5PuTTY?5lo@ 00446914     logging.obj
 0002:00000954       ??_C@_05CCNLIHFO@ASCII?$AA@ 00446954     logging.obj
 0002:0000095c       ??_C@_03DGOGAGNC@raw?$AA@  0044695c     logging.obj
 0002:00000960       ??_C@_0M@JLAOMPFP@SSH?5packets?$AA@ 00446960     logging.obj
 0002:0000096c       ??_C@_0N@LJOKCA@SSH?5raw?5data?$AA@ 0044696c     logging.obj
 0002:0000097c       ??_C@_07CIFAGBMG@unknown?$AA@ 0044697c     logging.obj
 0002:00000984       ??_C@_0BB@BCAOKBDA@Disabled?5writing?$AA@ 00446984     logging.obj
 0002:00000998       ??_C@_0O@JKPGJOCN@Error?5writing?$AA@ 00446998     logging.obj
 0002:000009a8       ??_C@_09JIOHNGHE@Appending?$AA@ 004469a8     logging.obj
 0002:000009b4       ??_C@_0M@NPLMCGEG@Writing?5new?$AA@ 004469b4     logging.obj
 0002:000009c0       ??_C@_0CF@BIBDBDMF@?$CFs?5session?5log?5?$CI?$CFs?5mode?$CJ?5to?5file@ 004469c0     logging.obj
 0002:000009e8       ??_C@_1DA@DBJCFJHK@?$AAc?$AAt?$AAx?$AA?9?$AA?$DO?$AAs?$AAt?$AAa?$AAt?$AAe?$AA?5?$AA?$CB?$AA?$DN?$AA?5?$AAL?$AA_?$AAO?$AAP?$AAE?$AAN?$AAI?$AAN?$AAG?$AA?$AA@ 004469e8     logging.obj
 0002:00000a18       ??_C@_03OFAPEBGM@?$CFs?6?$AA@ 00446a18     logging.obj
 0002:00000a1c       ??_C@_0BA@GKCPLIOC@Event?5Log?3?5?$CFs?$AN?6?$AA@ 00446a1c     logging.obj
 0002:00000a2c       ??_C@_08KCCDBHEM@Incoming?$AA@ 00446a2c     logging.obj
 0002:00000a38       ??_C@_08MEACDAPG@Outgoing?$AA@ 00446a38     logging.obj
 0002:00000a44       ??_C@_0CK@HBBLBIKA@?$CFs?5packet?5?$CD0x?$CFlx?0?5type?5?$CFd?5?1?50x?$CF0@ 00446a44     logging.obj
 0002:00000a70       ??_C@_0CC@NKFFFGAE@?$CFs?5packet?5type?5?$CFd?5?1?50x?$CF02x?5?$CI?$CFs?$CJ?$AN@ 00446a70     logging.obj
 0002:00000a94       ??_C@_0BC@LGPAMIPH@?$CFY?9?$CFm?9?$CFd?5?$CFH?3?$CFM?3?$CFS?$AA@ 00446a94     logging.obj
 0002:00000aa8       ??_C@_0BE@DONOENMC@?$CFs?5raw?5data?5at?5?$CFs?$AN?6?$AA@ 00446aa8     logging.obj
 0002:00000abc       ??_C@_01LKDEMHDF@s?$AA@    00446abc     logging.obj
 0002:00000ac0       ??_C@_0BI@DLCCOJEF@?5?5?$CI?$CFd?5byte?$CFs?5omitted?$CJ?$AN?6?$AA@ 00446ac0     logging.obj
 0002:00000ad8       ??_C@_0M@EDMAGEPG@?5?5?$CF08x?$CF?$CKs?$AN?6?$AA@ 00446ad8     logging.obj
 0002:00000ae4       ??_C@_02BAHDIOLJ@XX?$AA@   00446ae4     logging.obj
 0002:00000ae8       ??_C@_04NOJCDH@?$CF02x?$AA@ 00446ae8     logging.obj
 0002:00000af0       ??_C@_02PCIJFNDE@?$AN?6?$AA@ 00446af0     logging.obj
 0002:00000af4       ??_C@_02FFEBEEPL@?$CFY?$AA@ 00446af4     logging.obj
 0002:00000af8       ??_C@_02OOGLLHAM@?$CFm?$AA@ 00446af8     logging.obj
 0002:00000afc       ??_C@_02DPKJAMEF@?$CFd?$AA@ 00446afc     logging.obj
 0002:00000b00       ??_C@_06NDFCBELD@?$CFH?$CFM?$CFS?$AA@ 00446b00     logging.obj
 0002:00000b4c       ??_C@_1BE@BMNMCII@?$AA?4?$AA?4?$AA?2?$AAm?$AAi?$AAs?$AAc?$AA?4?$AAc?$AA?$AA@ 00446b4c     misc.obj
 0002:00000b60       ??_C@_1CM@MFBGKCEF@?$AAc?$AAh?$AA?9?$AA?$DO?$AAb?$AAu?$AAf?$AAf?$AAe?$AAr?$AAs?$AAi?$AAz?$AAe?$AA?5?$AA?$DO?$AA?$DN?$AA?5?$AAl?$AAe?$AAn?$AA?$AA@ 00446b60     misc.obj
 0002:00000b8c       ??_C@_1CC@FNDPGLGN@?$AAc?$AAh?$AA?9?$AA?$DO?$AAh?$AAe?$AAa?$AAd?$AA?5?$AA?$CB?$AA?$DN?$AA?5?$AAN?$AAU?$AAL?$AAL?$AA?$AA@ 00446b8c     misc.obj
 0002:00000bb0       ??_C@_1BI@DJGBLBGG@?$AAt?$AAm?$AAp?$AA?5?$AA?$CB?$AA?$DN?$AA?5?$AAN?$AAU?$AAL?$AAL?$AA?$AA@ 00446bb0     misc.obj
 0002:00000bc8       ??_C@_0P@MCKMEEL@Out?5of?5memory?$CB?$AA@ 00446bc8     misc.obj
 0002:00000bd8       _GSS_MECH_KRB5             00446bd8     pgssapi.obj
 0002:00000c14       ??_C@_0L@ILDJNAMO@?$CK?$IGH?$IG?w?$BC?$AB?$AC?$AB?$AB?$AA@ 00446c14     pgssapi.obj
 0002:00000c20       ??_C@_0L@KABEIDAN@?$CK?$IGH?$IG?w?$BC?$AB?$AC?$AB?$AC?$AA@ 00446c20     pgssapi.obj
 0002:00000c2c       ??_C@_0L@LJAPLCEM@?$CK?$IGH?$IG?w?$BC?$AB?$AC?$AB?$AD?$AA@ 00446c2c     pgssapi.obj
 0002:00000c38       ??_C@_06EFHFGJEI@?$CL?$AG?$AB?$AF?$AG?$AC?$AA@ 00446c38     pgssapi.obj
 0002:00000c40       ??_C@_0L@PGEOCEIL@?$CK?$IGH?$IG?w?$BC?$AB?$AC?$AB?$AE?$AA@ 00446c40     pgssapi.obj
 0002:00000c4c       ??_C@_06FMGOFIAJ@?$CL?$AG?$AB?$AF?$AG?$AD?$AA@ 00446c4c     pgssapi.obj
 0002:00000c54       ??_C@_06BDCPMOMO@?$CL?$AG?$AB?$AF?$AG?$AE?$AA@ 00446c54     pgssapi.obj
 0002:00000c5c       ??_C@_09NLECEHAP@?$CK?$IGH?$IG?w?$BC?$AB?$AC?$AC?$AA@ 00446c5c     pgssapi.obj
 0002:00000ca4       ??_C@_0M@PCENNPGA@?$CFd?4?$CFd?4?$CFd?4?$CFd?$AA@ 00446ca4     portfwd.obj
 0002:00000cb0       ??_C@_0L@FNHHKHJK@forwarding?$AA@ 00446cb0     portfwd.obj
 0002:00000cf8       ??_C@_0CC@CHIEJHHN@Proxy?5error?3?5Unknown?5proxy?5metho@ 00446cf8     proxy.obj
 0002:00000d1c       ??_C@_0CP@GFIKKOPL@Proxy?5error?3?5Unable?5to?5resolve?5p@ 00446d1c     proxy.obj
 0002:00000d4c       ??_C@_0CG@CPJGCIDJ@CONNECT?5?$CFs?3?$CFi?5HTTP?11?41?$AN?6Host?3?5?$CFs@ 00446d4c     proxy.obj
 0002:00000d74       ??_C@_05CCMOGDN@?$CFs?3?$CFs?$AA@ 00446d74     proxy.obj
 0002:00000d7c       ??_C@_0BM@FIOMLIMJ@Proxy?9Authorization?3?5Basic?5?$AA@ 00446d7c     proxy.obj
 0002:00000d98       ??_C@_1BG@FDDNKKLG@?$AA?4?$AA?4?$AA?2?$AAp?$AAr?$AAo?$AAx?$AAy?$AA?4?$AAc?$AA?$AA@ 00446d98     proxy.obj
 0002:00000db0       ??_C@_1BA@GMKHALLP@?$AAl?$AAe?$AAn?$AA?5?$AA?$DO?$AA?5?$AA0?$AA?$AA@ 00446db0     proxy.obj
 0002:00000dc0       ??_C@_0O@FCMLAEAK@HTTP?1?$CFi?4?$CFi?5?$CFn?$AA@ 00446dc0     proxy.obj
 0002:00000dd0       ??_C@_0CG@DCGPPIJD@Proxy?5error?3?5HTTP?5response?5was?5a@ 00446dd0     proxy.obj
 0002:00000df8       ??_C@_0BA@DNMLDEBM@Proxy?5error?3?5?$CFs?$AA@ 00446df8     proxy.obj
 0002:00000e08       ??_C@_0CE@BIHKCDIA@Proxy?5error?3?5unexpected?5proxy?5er@ 00446e08     proxy.obj
 0002:00000e2c       ??_C@_0DD@NJPCDHJC@Proxy?5error?3?5SOCKS?5version?54?5doe@ 00446e2c     proxy.obj
 0002:00000e60       ??_C@_1CM@KOPDEFCN@?$AAt?$AAy?$AAp?$AAe?$AA?5?$AA?$DN?$AA?$DN?$AA?5?$AAA?$AAD?$AAD?$AAR?$AAT?$AAY?$AAP?$AAE?$AA_?$AAN?$AAA?$AAM?$AAE?$AA?$AA@ 00446e60     proxy.obj
 0002:00000e90       ??_C@_0EG@HCDALBAJ@Proxy?5error?3?5SOCKS?5proxy?5respond@ 00446e90     proxy.obj
 0002:00000ed8       ??_C@_0DC@EMGNIPAC@Proxy?5error?3?5SOCKS?5server?5wanted@ 00446ed8     proxy.obj
 0002:00000f0c       ??_C@_0DH@PKGOJMHG@Proxy?5error?3?5Username?5and?5IDENTD@ 00446f0c     proxy.obj
 0002:00000f44       ??_C@_0DC@DJNHKOKE@Proxy?5error?3?5Error?5while?5communi@ 00446f44     proxy.obj
 0002:00000f78       ??_C@_0DF@FODBGJHO@Proxy?5error?3?5SOCKS?5proxy?5returne@ 00446f78     proxy.obj
 0002:00000fb0       ??_C@_0DL@NOOPLEPN@Proxy?5error?3?5SOCKS?5proxy?5did?5not@ 00446fb0     proxy.obj
 0002:00000ff0       ??_C@_0EK@FGDFPEDC@Proxy?5error?3?5SOCKS?5password?5subn@ 00446ff0     proxy.obj
 0002:0000103c       ??_C@_0DJ@PIHELBJP@Proxy?5error?3?5SOCKS?5proxy?5refused@ 0044703c     proxy.obj
 0002:00001078       ??_C@_0DH@KDJCAPLN@Proxy?5error?3?5SOCKS?5proxy?5returne@ 00447078     proxy.obj
 0002:000010b0       ??_C@_0O@IGFHOHCM@Proxy?5error?3?5?$AA@ 004470b0     proxy.obj
 0002:000010c0       ??_C@_0BN@PBCHBBPC@General?5SOCKS?5server?5failure?$AA@ 004470c0     proxy.obj
 0002:000010e0       ??_C@_0CC@JOGFEKLK@Connection?5not?5allowed?5by?5rulese@ 004470e0     proxy.obj
 0002:00001104       ??_C@_0BE@BCKBHKGP@Network?5unreachable?$AA@ 00447104     proxy.obj
 0002:00001118       ??_C@_0BB@BJPAGEMG@Host?5unreachable?$AA@ 00447118     proxy.obj
 0002:0000112c       ??_C@_0BD@NPDMPPFP@Connection?5refused?$AA@ 0044712c     proxy.obj
 0002:00001140       ??_C@_0M@CDHAHENJ@TTL?5expired?$AA@ 00447140     proxy.obj
 0002:0000114c       ??_C@_0BG@OIMEHCDM@Command?5not?5supported?$AA@ 0044714c     proxy.obj
 0002:00001164       ??_C@_0BL@DHAHNDBK@Address?5type?5not?5supported?$AA@ 00447164     proxy.obj
 0002:00001180       ??_C@_0CB@OKKMDHPE@Unrecognised?5SOCKS?5error?5code?5?$CFd@ 00447180     proxy.obj
 0002:000011a4       ??_C@_0DO@BMJANFCJ@Proxy?5error?3?5SOCKS?5proxy?5returne@ 004471a4     proxy.obj
 0002:000011e4       ??_C@_0DE@KPEONOBG@Proxy?5error?3?5We?5don?8t?5support?5GS@ 004471e4     proxy.obj
 0002:00001218       ??_C@_0FD@HKOFFKHP@Proxy?5error?3?5Server?5chose?5userna@ 00447218     proxy.obj
 0002:0000126c       ??_C@_0CE@BKJPCPBI@Proxy?5error?3?5Unexpected?5proxy?5er@ 0044726c     proxy.obj
 0002:00001290       ??_C@_04OODOLJMA@host?$AA@ 00447290     proxy.obj
 0002:00001298       ??_C@_04LPGMAPLE@port?$AA@ 00447298     proxy.obj
 0002:000012a0       ??_C@_02IKAHHCAI@?$CFi?$AA@ 004472a0     proxy.obj
 0002:000012a4       ??_C@_04CCHAHKJA@user?$AA@ 004472a4     proxy.obj
 0002:000012ac       ??_C@_04BBDAIEHH@pass?$AA@ 004472ac     proxy.obj
 0002:000012b4       ??_C@_09BJOLDIDC@proxyhost?$AA@ 004472b4     proxy.obj
 0002:000012c0       ??_C@_09EILJIOEG@proxyport?$AA@ 004472c0     proxy.obj
 0002:000012cc       _appname                   004472cc     pscp.obj
 0002:000012d0       ??_C@_04BABBAJKI@PSCP?$AA@ 004472d0     pscp.obj
 0002:000012d8       ??_C@_1BE@ODDADMAC@?$AA?4?$AA?4?$AA?2?$AAp?$AAs?$AAc?$AAp?$AA?4?$AAc?$AA?$AA@ 004472d8     pscp.obj
 0002:000012ec       ??_C@_1BC@LPLGCJL@?$AAl?$AAe?$AAn?$AA?5?$AA?$DN?$AA?$DN?$AA?5?$AA0?$AA?$AA@ 004472ec     pscp.obj
 0002:00001300       ??_C@_01EEMJAFIK@?6?$AA@   00447300     pscp.obj
 0002:00001304       ??_C@_07KBIHLBNI@Fatal?3?5?$AA@ 00447304     pscp.obj
 0002:00001310       ??_C@_1FO@IOCLCGDK@?$AA?$CB?$AA?$CC?$AAU?$AAn?$AAe?$AAx?$AAp?$AAe?$AAc?$AAt?$AAe?$AAd?$AA?5?$AAc?$AAa?$AAl?$AAl?$AA?5?$AAt?$AAo?$AA?5?$AAf?$AAr?$AAo?$AAm?$AA_?$AAb?$AAa?$AAc?$AAk?$AAe?$AAn@ 00447310     pscp.obj
 0002:00001370       ??_C@_0CM@BLNKKHIK@Received?5unexpected?5end?9of?9file?5@ 00447370     pscp.obj
 0002:0000139c       ??_C@_0L@OMDBJKAH@Using?5SFTP?$AA@ 0044739c     pscp.obj
 0002:000013a8       ??_C@_0L@KAAAJIAP@Using?5SCP1?$AA@ 004473a8     pscp.obj
 0002:000013b4       ??_C@_0BA@NHKNMKBL@Empty?5host?5name?$AA@ 004473b4     pscp.obj
 0002:000013c4       ??_C@_01LBDDMOBJ@?$FN?$AA@ 004473c4     pscp.obj
 0002:000013c8       ??_C@_01JLIPDDHJ@?3?$AA@   004473c8     pscp.obj
 0002:000013cc       ??_C@_02OJDBNLEE@?5?7?$AA@ 004473cc     pscp.obj
 0002:000013d0       ??_C@_0BA@JGANHMLA@Empty?5user?5name?$AA@ 004473d0     pscp.obj
 0002:000013e0       ??_C@_0BH@BBJBGKOI@Guessing?5user?5name?3?5?$CFs?$AA@ 004473e0     pscp.obj
 0002:000013f8       ??_C@_04OFCFIDFI@sftp?$AA@ 004473f8     pscp.obj
 0002:00001400       ??_C@_0JB@JOCCJJFO@test?5?9x?5?1usr?1lib?1sftp?9server?5?$CG?$CG?5@ 00447400     pscp.obj
 0002:00001494       ??_C@_0N@MMGCDCDL@ssh_init?3?5?$CFs?$AA@ 00447494     pscp.obj
 0002:000014a4       ??_C@_0BB@LBEANBIC@Connected?5to?5?$CFs?6?$AA@ 004474a4     pscp.obj
 0002:000014b8       ??_C@_0BC@LKLFGIM@?$CF02ld?3?$CF02ld?3?$CF02ld?$AA@ 004474b8     pscp.obj
 0002:000014cc       ??_C@_0DC@CDJFFJNA@?$AN?$CF?925?425s?5?$HM?5?$CFs?5kB?5?$HM?5?$CF5?41f?5kB?1s?5?$HM@ 004474cc     pscp.obj
 0002:00001500       ??_C@_03HIJPJGOM@?$CF?$CKs?$AA@ 00447500     pscp.obj
 0002:00001504       ??_C@_01LFCBOECM@?4?$AA@   00447504     pscp.obj
 0002:00001508       ??_C@_0BA@GFKBCBON@Lost?5connection?$AA@ 00447508     pscp.obj
 0002:00001518       ??_C@_0CA@JINABJHN@Protocol?5error?3?5Lost?5connection?$AA@ 00447518     pscp.obj
 0002:00001538       ??_C@_02DKCKIIND@?$CFs?$AA@ 00447538     pscp.obj
 0002:0000153c       ??_C@_0BO@OHNBJFK@unable?5to?5initialise?5SFTP?3?5?$CFs?$AA@ 0044753c     pscp.obj
 0002:0000155c       ??_C@_0BG@PHNMANNO@Listing?5directory?5?$CFs?6?$AA@ 0044755c     pscp.obj
 0002:00001574       ??_C@_1BI@GOKBAGBJ@?$AAr?$AAr?$AAe?$AAq?$AA?5?$AA?$DN?$AA?$DN?$AA?5?$AAr?$AAe?$AAq?$AA?$AA@ 00447574     pscp.obj
 0002:0000158c       ??_C@_0BH@KGNHHBEN@Unable?5to?5open?5?$CFs?3?5?$CFs?6?$AA@ 0044758c     pscp.obj
 0002:000015a4       ??_C@_0BK@IODJLODE@Reading?5directory?5?$CFs?3?5?$CFs?6?$AA@ 004475a4     pscp.obj
 0002:000015c0       ??_C@_0CL@BMFPGBEL@pscp?3?5remote?5filespec?5?$CFs?3?5not?5a?5@ 004475c0     pscp.obj
 0002:000015ec       ??_C@_01KHDNNMEB@?$AB?$AA@ 004475ec     pscp.obj
 0002:000015f0       ??_C@_0O@CJLCFALF@T?$CFlu?50?5?$CFlu?50?6?$AA@ 004475f0     pscp.obj
 0002:00001600       ??_C@_01KMDKNFGN@?1?$AA@   00447600     pscp.obj
 0002:00001604       ??_C@_0BM@PKCCGMCH@pscp?3?5unable?5to?5open?5?$CFs?3?5?$CFs?$AA@ 00447604     pscp.obj
 0002:00001620       ??_C@_09BEMDABNG@C?$CF04o?5?$CFs?5?$AA@ 00447620     pscp.obj
 0002:0000162c       ??_C@_0BJ@JDEELMBP@error?5while?5writing?3?5?$CFs?6?$AA@ 0044762c     pscp.obj
 0002:00001648       ??_C@_0BO@NDJINGHE@unable?5to?5set?5file?5times?3?5?$CFs?6?$AA@ 00447648     pscp.obj
 0002:00001668       ??_C@_0BJ@FPMPBJI@server?5reported?5no?5error?$AA@ 00447668     pscp.obj
 0002:00001684       ??_C@_0CC@MJJCKKIJ@unable?5to?5create?5directory?5?$CFs?3?5?$CF@ 00447684     pscp.obj
 0002:000016a8       ??_C@_08BGCJLLBB@D?$CF04o?50?5?$AA@ 004476a8     pscp.obj
 0002:000016b4       ??_C@_02IMAAIBEM@E?6?$AA@  004476b4     pscp.obj
 0002:000016b8       ??_C@_0CJ@GIFKLGHF@?$CFs?3?5multiple?9level?5wildcards?5uns@ 004476b8     pscp.obj
 0002:000016e4       ??_C@_0CF@BKOPMHL@pscp?3?5wildcard?5?8?$CFs?8?5matched?5no?5f@ 004476e4     pscp.obj
 0002:0000170c       ??_C@_0BH@GJJBHKID@file?5type?5not?5supplied?$AA@ 0044770c     pscp.obj
 0002:00001724       ??_C@_0BK@LKLLBEDP@unable?5to?5identify?5?$CFs?3?5?$CFs?$AA@ 00447724     pscp.obj
 0002:00001740       ??_C@_0BJ@HDMPDAAA@pscp?3?5?$CFs?3?5is?5a?5directory?$AA@ 00447740     pscp.obj
 0002:0000175c       ??_C@_0CF@PKFDBBJJ@scp?3?5unable?5to?5open?5directory?5?$CFs@ 0044775c     pscp.obj
 0002:00001784       ??_C@_0BP@DGCHLOAD@scp?3?5reading?5directory?5?$CFs?3?5?$CFs?6?$AA@ 00447784     pscp.obj
 0002:000017a4       ??_C@_02DJGKEECL@?4?4?$AA@ 004477a4     pscp.obj
 0002:000017a8       ??_C@_0DO@HKFBPDKN@ignoring?5potentially?5dangerous?5s@ 004477a8     pscp.obj
 0002:000017e8       ??_C@_0CD@PGKPPIMG@Protocol?5error?3?5Unexpected?5newli@ 004477e8     pscp.obj
 0002:0000180c       ??_C@_0BA@ONDJPCGB@?$CFld?5?$CF?$CKd?5?$CFld?5?$CF?$CKd?$AA@ 0044780c     pscp.obj
 0002:0000181c       ??_C@_0CE@BMPLPKAO@Protocol?5error?3?5Illegal?5time?5for@ 0044781c     pscp.obj
 0002:00001840       ??_C@_0CI@HBKCNGK@Protocol?5error?3?5Expected?5control@ 00447840     pscp.obj
 0002:00001868       ??_C@_09EFPJMFKA@?$CFlo?5?$CFs?5?$CFn?$AA@ 00447868     pscp.obj
 0002:00001874       ??_C@_0CP@LACIEJNK@Protocol?5error?3?5Illegal?5file?5des@ 00447874     pscp.obj
 0002:000018a4       ??_C@_0BO@GIKEDLIK@pscp?3?5error?5while?5reading?3?5?$CFs?$AA@ 004478a4     pscp.obj
 0002:000018c4       ??_C@_1CC@DLPAODNB@?$AAa?$AAc?$AAt?$AAu?$AAa?$AAl?$AAl?$AAe?$AAn?$AA?5?$AA?$DM?$AA?$DN?$AA?5?$AAl?$AAe?$AAn?$AA?$AA@ 004478c4     pscp.obj
 0002:000018e8       ??_C@_05MKFOMING@scp?3?5?$AA@ 004478e8     pscp.obj
 0002:000018f0       ??_C@_05MAPLPOBB@Not?5a?$AA@ 004478f0     pscp.obj
 0002:000018f8       ??_C@_07NJLOJHBE@No?5such?$AA@ 004478f8     pscp.obj
 0002:00001900       ??_C@_0BJ@NEIINMBL@?$CFs?3?5?$CFs?5file?5or?5directory?$AA@ 00447900     pscp.obj
 0002:0000191c       ??_C@_0BH@MJMKKPAG@?$CFs?3?5not?5a?5regular?5file?$AA@ 0044791c     pscp.obj
 0002:00001934       ??_C@_0BF@LFDJGIPE@?$CFs?3?5Cannot?5open?5file?$AA@ 00447934     pscp.obj
 0002:0000194c       ??_C@_0BJ@NEEGOJJM@Sending?5file?5?$CFs?0?5size?$DN?$CFs?$AA@ 0044794c     pscp.obj
 0002:00001968       ??_C@_0P@KDPAMBLB@?$CFs?3?5Read?5error?$AA@ 00447968     pscp.obj
 0002:00001978       ??_C@_0BL@NOGOPNM@?$CFs?3?5Network?5error?5occurred?$AA@ 00447978     pscp.obj
 0002:00001994       ??_C@_0BH@IEDBNPLO@Entering?5directory?3?5?$CFs?$AA@ 00447994     pscp.obj
 0002:000019ac       ??_C@_0BE@GPFDEKOF@?$CFs?3?5Not?5a?5directory?$AA@ 004479ac     pscp.obj
 0002:000019c0       ??_C@_0DD@PHNEPKB@warning?3?5remote?5host?5sent?5a?5comp@ 004479c0     pscp.obj
 0002:000019f4       ??_C@_0CF@KDGMNOMP@?5?5?5?5?5?5?5?5?5renaming?5local?5file?5to?5@ 004479f4     pscp.obj
 0002:00001a20       ??_C@_0EK@IMHJLMKB@security?5violation?3?5remote?5host?5@ 00447a20     pscp.obj
 0002:00001a6c       ??_C@_0DK@DEIPHALF@warning?3?5remote?5host?5tried?5to?5wr@ 00447a6c     pscp.obj
 0002:00001aa8       ??_C@_0CP@BOHEJJA@?5?5?5?5?5?5?5?5?5when?5we?5requested?5a?5fil@ 00447aa8     pscp.obj
 0002:00001ad8       ??_C@_0EF@BDFOMNCH@?5?5?5?5?5?5?5?5?5If?5this?5is?5a?5wildcard?0?5@ 00447ad8     pscp.obj
 0002:00001b20       ??_C@_0EK@EPEJJKGM@?5?5?5?5?5?5?5?5?5the?5?8?9unsafe?8?5option?4?5R@ 00447b20     pscp.obj
 0002:00001b6c       ??_C@_0BM@CPGIECHL@?$CFs?3?5Cannot?5create?5directory?$AA@ 00447b6c     pscp.obj
 0002:00001b88       ??_C@_0BH@CAJEPFMB@?$CFs?3?5Cannot?5create?5file?$AA@ 00447b88     pscp.obj
 0002:00001ba0       ??_C@_0CG@NCEPKABP@Write?5error?4?4?5waiting?5for?5end?5of@ 00447ba0     pscp.obj
 0002:00001bc8       ??_C@_0BC@MFMKEODI@?$AN?$CF?925?425s?5?$HM?5?$CF50s?6?$AA@ 00447bc8     pscp.obj
 0002:00001bdc       ??_C@_0BA@NOKFNHGH@?$CFs?3?5Write?5error?$AA@ 00447bdc     pscp.obj
 0002:00001bec       ??_C@_0BL@BKDPFEIO@targ?5?$DN?$DN?5NULL?5in?5toremote?$CI?$CJ?$AA@ 00447bec     pscp.obj
 0002:00001c08       ??_C@_0CD@BBMOJCIL@?$CFs?3?5Remote?5to?5remote?5not?5support@ 00447c08     pscp.obj
 0002:00001c2c       ??_C@_0BP@IOJNICNK@?$CFs?3?5No?5such?5file?5or?5directory?6?$AA@ 00447c2c     pscp.obj
 0002:00001c4c       ??_C@_03EPINPEMN@?5?9d?$AA@ 00447c4c     pscp.obj
 0002:00001c50       ??_C@_03GBCDCDJI@?5?9p?$AA@ 00447c50     pscp.obj
 0002:00001c54       ??_C@_03FDBFEBBK@?5?9r?$AA@ 00447c54     pscp.obj
 0002:00001c58       ??_C@_03DHHJIEBO@?5?9v?$AA@ 00447c58     pscp.obj
 0002:00001c5c       ??_C@_0BC@HGKNFPII@scp?$CFs?$CFs?$CFs?$CFs?5?9t?5?$CFs?$AA@ 00447c5c     pscp.obj
 0002:00001c70       ??_C@_0CE@IAJEHMLA@?$CFs?3?5Remote?5to?5remote?5not?5support@ 00447c70     pscp.obj
 0002:00001c94       ??_C@_0BO@MDLIMKID@?$CFs?3?5No?5such?5file?5or?5directory?$AA@ 00447c94     pscp.obj
 0002:00001cb4       ??_C@_0CK@DKNHFGEF@More?5than?5one?5remote?5source?5not?5@ 00447cb4     pscp.obj
 0002:00001ce0       ??_C@_0CC@PCFIIFDE@Local?5to?5local?5copy?5not?5supporte@ 00447ce0     pscp.obj
 0002:00001d04       ??_C@_0BC@GMINJLGK@scp?$CFs?$CFs?$CFs?$CFs?5?9f?5?$CFs?$AA@ 00447d04     pscp.obj
 0002:00001d18       ??_C@_0CB@OEHAPPMK@Local?5file?5listing?5not?5supported@ 00447d18     pscp.obj
 0002:00001d3c       ??_C@_08MICBNOEJ@ls?5?9la?5?8?$AA@ 00447d3c     pscp.obj
 0002:00001d48       ??_C@_0BK@DJJAPCLI@PuTTY?5Secure?5Copy?5client?6?$AA@ 00447d48     pscp.obj
 0002:00001d64       ??_C@_0DB@JHKAOPCO@Usage?3?5pscp?5?$FLoptions?$FN?5?$FLuser?$EA?$FNhos@ 00447d64     pscp.obj
 0002:00001d98       ??_C@_0DN@DMOJAPJB@?5?5?5?5?5?5?5pscp?5?$FLoptions?$FN?5source?5?$FLso@ 00447d98     pscp.obj
 0002:00001dd8       ??_C@_0DA@IECEOP@?5?5?5?5?5?5?5pscp?5?$FLoptions?$FN?5?9ls?5?$FLuser?$EA@ 00447dd8     pscp.obj
 0002:00001e08       ??_C@_09MAGKGNDA@Options?3?6?$AA@ 00447e08     pscp.obj
 0002:00001e14       ??_C@_0DA@LLOCJCBI@?5?5?9V?5?5?5?5?5?5?5?5print?5version?5inform@ 00447e14     pscp.obj
 0002:00001e44       ??_C@_0DB@NGALBONC@?5?5?9pgpfp?5?5?5?5print?5PGP?5key?5finger@ 00447e44     pscp.obj
 0002:00001e78       ??_C@_0CG@NAFBMNDF@?5?5?9p?5?5?5?5?5?5?5?5preserve?5file?5attrib@ 00447e78     pscp.obj
 0002:00001ea0       ??_C@_0CK@GAFFMCBG@?5?5?9q?5?5?5?5?5?5?5?5quiet?0?5don?8t?5show?5st@ 00447ea0     pscp.obj
 0002:00001ecc       ??_C@_0CK@FEHIBOJN@?5?5?9r?5?5?5?5?5?5?5?5copy?5directories?5rec@ 00447ecc     pscp.obj
 0002:00001ef8       ??_C@_0CD@JLCMJEMO@?5?5?9v?5?5?5?5?5?5?5?5show?5verbose?5message@ 00447ef8     pscp.obj
 0002:00001f1c       ??_C@_0DE@CKENBPAA@?5?5?9load?5sessname?5?5Load?5settings?5@ 00447f1c     pscp.obj
 0002:00001f50       ??_C@_0CH@GCKHKFHI@?5?5?9P?5port?5?5?5connect?5to?5specified@ 00447f50     pscp.obj
 0002:00001f78       ??_C@_0CN@MKHKOEFP@?5?5?9l?5user?5?5?5connect?5with?5specifi@ 00447f78     pscp.obj
 0002:00001fa8       ??_C@_0CL@HHFCCNKD@?5?5?9pw?5passw?5login?5with?5specified@ 00447fa8     pscp.obj
 0002:00001fd4       ??_C@_0DK@CFDOEFDO@?5?5?91?5?92?5?5?5?5?5force?5use?5of?5particu@ 00447fd4     pscp.obj
 0002:00002010       ??_C@_0CH@ENGOOKOG@?5?5?94?5?96?5?5?5?5?5force?5use?5of?5IPv4?5or@ 00448010     pscp.obj
 0002:00002038       ??_C@_0CA@OBCIKGBE@?5?5?9C?5?5?5?5?5?5?5?5enable?5compression?6?$AA@ 00448038     pscp.obj
 0002:00002058       ??_C@_0DB@KANIOCAH@?5?5?9i?5key?5?5?5?5private?5key?5file?5for@ 00448058     pscp.obj
 0002:0000208c       ??_C@_0CE@LPGCJCIB@?5?5?9noagent?5?5disable?5use?5of?5Pagea@ 0044808c     pscp.obj
 0002:000020b0       ??_C@_0CD@GFPPBAFA@?5?5?9agent?5?5?5?5enable?5use?5of?5Pagean@ 004480b0     pscp.obj
 0002:000020d4       ??_C@_0CN@KCKOOPHP@?5?5?9batch?5?5?5?5disable?5all?5interact@ 004480d4     pscp.obj
 0002:00002104       ??_C@_0DF@IPAACLBE@?5?5?9unsafe?5?5?5allow?5server?9side?5wi@ 00448104     pscp.obj
 0002:0000213c       ??_C@_0CI@MAIGGDFG@?5?5?9sftp?5?5?5?5?5force?5use?5of?5SFTP?5pr@ 0044813c     pscp.obj
 0002:00002164       ??_C@_0CH@CDIKFJCN@?5?5?9scp?5?5?5?5?5?5force?5use?5of?5SCP?5pro@ 00448164     pscp.obj
 0002:0000218c       ??_C@_09MOIKPADC@pscp?3?5?$CFs?6?$AA@ 0044818c     pscp.obj
 0002:00002198       ??_C@_06KJIGGCA@pscp?3?5?$AA@ 00448198     pscp.obj
 0002:000021a0       ??_C@_0CI@HJPJOADI@?6?5?5?5?5?5?5try?5typing?5just?5?$CCpscp?$CC?5fo@ 004481a0     pscp.obj
 0002:000021c8       ??_C@_0CB@CDBNPPJP@option?5?$CC?$CFs?$CC?5requires?5an?5argument@ 004481c8     pscp.obj
 0002:000021ec       ??_C@_06OEJDLALJ@?9pgpfp?$AA@ 004481ec     pscp.obj
 0002:000021f4       ??_C@_02CNCCOICK@?9r?$AA@  004481f4     pscp.obj
 0002:000021f8       ??_C@_02BPBEIKKI@?9p?$AA@  004481f8     pscp.obj
 0002:000021fc       ??_C@_02GAPLLOJ@?9q?$AA@   004481fc     pscp.obj
 0002:00002200       ??_C@_02JNAPBCPB@?9h?$AA@  00448200     pscp.obj
 0002:00002204       ??_C@_02GIPFNJGC@?9?$DP?$AA@ 00448204     pscp.obj
 0002:00002208       ??_C@_06LMIDBODK@?9?9help?$AA@ 00448208     pscp.obj
 0002:00002210       ??_C@_02NMMKAJIM@?9V?$AA@  00448210     pscp.obj
 0002:00002214       ??_C@_09GAJKMFCA@?9?9version?$AA@ 00448214     pscp.obj
 0002:00002220       ??_C@_03MJDMEPHB@?9ls?$AA@ 00448220     pscp.obj
 0002:00002224       ??_C@_06COHPCLGM@?9batch?$AA@ 00448224     pscp.obj
 0002:0000222c       ??_C@_07BNDIOELO@?9unsafe?$AA@ 0044822c     pscp.obj
 0002:00002234       ??_C@_05CJPHMDAO@?9sftp?$AA@ 00448234     pscp.obj
 0002:0000223c       ??_C@_04BMKIOAKK@?9scp?$AA@ 0044823c     pscp.obj
 0002:00002244       ??_C@_02BAABKJLB@?9?9?$AA@ 00448244     pscp.obj
 0002:00002248       ??_C@_0BE@LOAAFJEB@unknown?5option?5?$CC?$CFs?$CC?$AA@ 00448248     pscp.obj
 0002:00002260       __real@3f50000000000000    00448260     pscp.obj
 0002:00002268       __real@3f800000            00448268     pscp.obj
 0002:00002270       __real@4059000000000000    00448270     pscp.obj
 0002:000023a0       _ttymodes                  004483a0     settings.obj
 0002:00002478       ??_C@_0M@EKKIMHEK@187?0187?0187?$AA@ 00448478     settings.obj
 0002:00002484       ??_C@_0M@HIJMBBJH@255?0255?0255?$AA@ 00448484     settings.obj
 0002:00002490       ??_C@_05FAEMOKCC@0?00?00?$AA@ 00448490     settings.obj
 0002:00002498       ??_C@_08KKGKFDEE@85?085?085?$AA@ 00448498     settings.obj
 0002:000024a4       ??_C@_07BOJKDALH@0?0255?00?$AA@ 004484a4     settings.obj
 0002:000024ac       ??_C@_07ELECBMIG@187?00?00?$AA@ 004484ac     settings.obj
 0002:000024b4       ??_C@_09DCKAJKMO@255?085?085?$AA@ 004484b4     settings.obj
 0002:000024c0       ??_C@_07MKJHEOCD@0?0187?00?$AA@ 004484c0     settings.obj
 0002:000024c8       ??_C@_09MNAJNEEK@85?0255?085?$AA@ 004484c8     settings.obj
 0002:000024d4       ??_C@_09FECCHLOJ@187?0187?00?$AA@ 004484d4     settings.obj
 0002:000024e0       ??_C@_0L@MAPMHELN@255?0255?085?$AA@ 004484e0     settings.obj
 0002:000024ec       ??_C@_07OFKOGOHD@0?00?0187?$AA@ 004484ec     settings.obj
 0002:000024f4       ??_C@_09LMJHMNAI@85?085?0255?$AA@ 004484f4     settings.obj
 0002:00002500       ??_C@_09HLBLFLLJ@187?00?0187?$AA@ 00448500     settings.obj
 0002:0000250c       ??_C@_0L@LBGCGNPP@255?085?0255?$AA@ 0044850c     settings.obj
 0002:00002518       ??_C@_09CNAOKCBI@0?0187?0187?$AA@ 00448518     settings.obj
 0002:00002524       ??_C@_0L@FLEIIDII@85?0255?0255?$AA@ 00448524     settings.obj
 0002:00002530       ??_C@_0EA@NIIBGEKA@0?00?00?00?00?00?00?00?00?00?00?00?00?00?00?00?0@ 00448530     settings.obj
 0002:00002570       ??_C@_0EA@FPDDEHNH@0?01?02?01?01?01?01?01?01?01?01?01?01?02?02?02?0@ 00448570     settings.obj
 0002:000025b0       ??_C@_0EA@DBPANBHP@1?02?02?02?02?02?02?02?02?02?02?02?02?02?02?02?0@ 004485b0     settings.obj
 0002:000025f0       ??_C@_0EA@BKNNICLM@1?02?02?02?02?02?02?02?02?02?02?02?02?02?02?02?0@ 004485f0     settings.obj
 0002:00002630       ??_C@_0EA@BMFKLFMA@1?01?01?01?01?01?01?01?01?01?01?01?01?01?01?01?0@ 00448630     settings.obj
 0002:00002670       ??_C@_0EA@GAMBBNED@2?02?02?02?02?02?02?02?02?02?02?02?02?02?02?02?0@ 00448670     settings.obj
 0002:000026b0       ??_C@_03BHCPJDHL@aes?$AA@  004486b0     settings.obj
 0002:000026b4       ??_C@_08CMDBPLDA@blowfish?$AA@ 004486b4     settings.obj
 0002:000026c0       ??_C@_04CBBGIJBO@3des?$AA@ 004486c0     settings.obj
 0002:000026c8       ??_C@_04JBIELMDE@WARN?$AA@ 004486c8     settings.obj
 0002:000026d0       ??_C@_07EJAPOIDC@arcfour?$AA@ 004486d0     settings.obj
 0002:000026d8       ??_C@_03CAPBGDEJ@des?$AA@  004486d8     settings.obj
 0002:000026dc       ??_C@_0M@PENOLILK@dh?9gex?9sha1?$AA@ 004486dc     settings.obj
 0002:000026e8       ??_C@_0BA@PANCPPML@dh?9group14?9sha1?$AA@ 004486e8     settings.obj
 0002:000026f8       ??_C@_0P@BNDKBLBG@dh?9group1?9sha1?$AA@ 004486f8     settings.obj
 0002:00002708       ??_C@_03DFNMMEBL@rsa?$AA@  00448708     settings.obj
 0002:0000270c       ??_C@_04PEMNKEGO@INTR?$AA@ 0044870c     settings.obj
 0002:00002714       ??_C@_04GBOBDPBG@QUIT?$AA@ 00448714     settings.obj
 0002:0000271c       ??_C@_05JDCHENNJ@ERASE?$AA@ 0044871c     settings.obj
 0002:00002724       ??_C@_04NFKOACKA@KILL?$AA@ 00448724     settings.obj
 0002:0000272c       ??_C@_03KPJEKKJC@EOF?$AA@  0044872c     settings.obj
 0002:00002730       ??_C@_03FFHLECBI@EOL?$AA@  00448730     settings.obj
 0002:00002734       ??_C@_04POEJLHGF@EOL2?$AA@ 00448734     settings.obj
 0002:0000273c       ??_C@_05JLPDBANI@START?$AA@ 0044873c     settings.obj
 0002:00002744       ??_C@_04MDHMLCKF@STOP?$AA@ 00448744     settings.obj
 0002:0000274c       ??_C@_04GOPMIPNE@SUSP?$AA@ 0044874c     settings.obj
 0002:00002754       ??_C@_05INNFJBBA@DSUSP?$AA@ 00448754     settings.obj
 0002:0000275c       ??_C@_07JHHPDFIC@REPRINT?$AA@ 0044875c     settings.obj
 0002:00002764       ??_C@_06FJPLOEDN@WERASE?$AA@ 00448764     settings.obj
 0002:0000276c       ??_C@_05MBNGDNDE@LNEXT?$AA@ 0044876c     settings.obj
 0002:00002774       ??_C@_05KALGKIBB@FLUSH?$AA@ 00448774     settings.obj
 0002:0000277c       ??_C@_05EAAHFJLP@SWTCH?$AA@ 0044877c     settings.obj
 0002:00002784       ??_C@_06DNKMJCIK@STATUS?$AA@ 00448784     settings.obj
 0002:0000278c       ??_C@_07KLFFMLGM@DISCARD?$AA@ 0044878c     settings.obj
 0002:00002794       ??_C@_06HEEGBLFE@IGNPAR?$AA@ 00448794     settings.obj
 0002:0000279c       ??_C@_06NCFKGAKE@PARMRK?$AA@ 0044879c     settings.obj
 0002:000027a4       ??_C@_05CLPFEJCF@INPCK?$AA@ 004487a4     settings.obj
 0002:000027ac       ??_C@_06FAHNCPEL@ISTRIP?$AA@ 004487ac     settings.obj
 0002:000027b4       ??_C@_05KKDKAIBK@INLCR?$AA@ 004487b4     settings.obj
 0002:000027bc       ??_C@_05NCDKCOA@IGNCR?$AA@ 004487bc     settings.obj
 0002:000027c4       ??_C@_05DOPFEAIL@ICRNL?$AA@ 004487c4     settings.obj
 0002:000027cc       ??_C@_05LNOMNKPC@IUCLC?$AA@ 004487cc     settings.obj
 0002:000027d4       ??_C@_04HHLLLNOB@IXON?$AA@ 004487d4     settings.obj
 0002:000027dc       ??_C@_05FMNMPIHN@IXANY?$AA@ 004487dc     settings.obj
 0002:000027e4       ??_C@_05HPEKNAGI@IXOFF?$AA@ 004487e4     settings.obj
 0002:000027ec       ??_C@_07FODEGPLO@IMAXBEL?$AA@ 004487ec     settings.obj
 0002:000027f4       ??_C@_04HFPFPNBL@ISIG?$AA@ 004487f4     settings.obj
 0002:000027fc       ??_C@_06DBKIJOGI@ICANON?$AA@ 004487fc     settings.obj
 0002:00002804       ??_C@_05HBOPOCKO@XCASE?$AA@ 00448804     settings.obj
 0002:0000280c       ??_C@_04CJAHKHLK@ECHO?$AA@ 0044880c     settings.obj
 0002:00002814       ??_C@_05KGJDOGHF@ECHOE?$AA@ 00448814     settings.obj
 0002:0000281c       ??_C@_05DIBAMLPL@ECHOK?$AA@ 0044881c     settings.obj
 0002:00002824       ??_C@_06HAFAPJLN@ECHONL?$AA@ 00448824     settings.obj
 0002:0000282c       ??_C@_06NIICIJJE@NOFLSH?$AA@ 0044882c     settings.obj
 0002:00002834       ??_C@_06LBKGOPNL@TOSTOP?$AA@ 00448834     settings.obj
 0002:0000283c       ??_C@_06LIDCLKKL@IEXTEN?$AA@ 0044883c     settings.obj
 0002:00002844       ??_C@_07JDDLFNE@ECHOCTL?$AA@ 00448844     settings.obj
 0002:0000284c       ??_C@_06KHFJIABP@ECHOKE?$AA@ 0044884c     settings.obj
 0002:00002854       ??_C@_06PMNHKPGP@PENDIN?$AA@ 00448854     settings.obj
 0002:0000285c       ??_C@_05PLHKGJPM@OPOST?$AA@ 0044885c     settings.obj
 0002:00002864       ??_C@_05BFLCFEOD@OLCUC?$AA@ 00448864     settings.obj
 0002:0000286c       ??_C@_05HMGDOLAH@ONLCR?$AA@ 0044886c     settings.obj
 0002:00002874       ??_C@_05OIKMKDJG@OCRNL?$AA@ 00448874     settings.obj
 0002:0000287c       ??_C@_05GONGEEOJ@ONOCR?$AA@ 0044887c     settings.obj
 0002:00002884       ??_C@_06LBADOLBH@ONLRET?$AA@ 00448884     settings.obj
 0002:0000288c       ??_C@_03KJOHOHON@CS7?$AA@  0044888c     settings.obj
 0002:00002890       ??_C@_03COHPPLCC@CS8?$AA@  00448890     settings.obj
 0002:00002894       ??_C@_06NDBAKJBG@PARENB?$AA@ 00448894     settings.obj
 0002:0000289c       ??_C@_06OHGAGLCC@PARODD?$AA@ 0044889c     settings.obj
 0002:000028a4       ??_C@_01OCOKONAJ@L?$AA@    004488a4     settings.obj
 0002:000028a8       ??_C@_1BM@LPMDBKLM@?$AA?4?$AA?4?$AA?2?$AAs?$AAe?$AAt?$AAt?$AAi?$AAn?$AAg?$AAs?$AA?4?$AAc?$AA?$AA@ 004488a8     settings.obj
 0002:000028c4       ??_C@_1CE@OCELJLLL@?$AAm?$AAa?$AAp?$AAp?$AAi?$AAn?$AAg?$AA?$FL?$AAi?$AA?$FN?$AA?4?$AAv?$AA?5?$AA?$DM?$AA?5?$AA3?$AA2?$AA?$AA@ 004488c4     settings.obj
 0002:000028e8       ??_C@_1M@HCFHNBN@?$AAj?$AA?5?$AA?$DM?$AA?5?$AAn?$AA?$AA@ 004488e8     settings.obj
 0002:000028f4       ??_C@_01IHBHIGKO@?0?$AA@   004488f4     settings.obj
 0002:000028f8       ??_C@_08EJIMMOH@HostName?$AA@ 004488f8     settings.obj
 0002:00002904       ??_C@_0M@LILHGKM@LogFileName?$AA@ 00448904     settings.obj
 0002:00002910       ??_C@_07BLDPIFHF@LogType?$AA@ 00448910     settings.obj
 0002:00002918       ??_C@_0N@GEDMDCAP@LogFileClash?$AA@ 00448918     settings.obj
 0002:00002928       ??_C@_08EEDLMPAL@LogFlush?$AA@ 00448928     settings.obj
 0002:00002934       ??_C@_0BE@FDKJDNBD@SSHLogOmitPasswords?$AA@ 00448934     settings.obj
 0002:00002948       ??_C@_0P@LPNJCIN@SSHLogOmitData?$AA@ 00448948     settings.obj
 0002:00002958       ??_C@_08NAKOFPNG@Protocol?$AA@ 00448958     settings.obj
 0002:00002964       ??_C@_0L@NGCGLEGO@PortNumber?$AA@ 00448964     settings.obj
 0002:00002970       ??_C@_0M@FKKACOPA@CloseOnExit?$AA@ 00448970     settings.obj
 0002:0000297c       ??_C@_0M@OIMMGHLB@WarnOnClose?$AA@ 0044897c     settings.obj
 0002:00002988       ??_C@_0N@MHDGNOPF@PingInterval?$AA@ 00448988     settings.obj
 0002:00002998       ??_C@_0BB@IHHLNFKP@PingIntervalSecs?$AA@ 00448998     settings.obj
 0002:000029ac       ??_C@_0L@BJCKGKOH@TCPNoDelay?$AA@ 004489ac     settings.obj
 0002:000029b8       ??_C@_0O@JGFDCAMB@TCPKeepalives?$AA@ 004489b8     settings.obj
 0002:000029c8       ??_C@_0N@PLJHOHNJ@TerminalType?$AA@ 004489c8     settings.obj
 0002:000029d8       ??_C@_0O@IJLHKGFA@TerminalSpeed?$AA@ 004489d8     settings.obj
 0002:000029e8       ??_C@_0O@OPOECGBL@TerminalModes?$AA@ 004489e8     settings.obj
 0002:000029f8       ??_C@_0O@BBFCFNFH@AddressFamily?$AA@ 004489f8     settings.obj
 0002:00002a08       ??_C@_0BB@LPDPIJJE@ProxyExcludeList?$AA@ 00448a08     settings.obj
 0002:00002a1c       ??_C@_08BEHIGMOD@ProxyDNS?$AA@ 00448a1c     settings.obj
 0002:00002a28       ??_C@_0P@PPDCMMIE@ProxyLocalhost?$AA@ 00448a28     settings.obj
 0002:00002a38       ??_C@_0M@LKIANCI@ProxyMethod?$AA@ 00448a38     settings.obj
 0002:00002a44       ??_C@_09JHHHBEOG@ProxyHost?$AA@ 00448a44     settings.obj
 0002:00002a50       ??_C@_09MGCFKCJC@ProxyPort?$AA@ 00448a50     settings.obj
 0002:00002a5c       ??_C@_0O@LPPPKJOO@ProxyUsername?$AA@ 00448a5c     settings.obj
 0002:00002a6c       ??_C@_0O@IHOKPHGK@ProxyPassword?$AA@ 00448a6c     settings.obj
 0002:00002a7c       ??_C@_0BD@IJFLPJDD@ProxyTelnetCommand?$AA@ 00448a7c     settings.obj
 0002:00002a90       ??_C@_0M@OAOKKMLA@Environment?$AA@ 00448a90     settings.obj
 0002:00002a9c       ??_C@_08KAFEAHEM@UserName?$AA@ 00448a9c     settings.obj
 0002:00002aa8       ??_C@_0BI@HPGFHBFK@UserNameFromEnvironment?$AA@ 00448aa8     settings.obj
 0002:00002ac0       ??_C@_0O@NAGEBAGM@LocalUserName?$AA@ 00448ac0     settings.obj
 0002:00002ad0       ??_C@_05KLMMLKAP@NoPTY?$AA@ 00448ad0     settings.obj
 0002:00002ad8       ??_C@_0M@COKFBABJ@Compression?$AA@ 00448ad8     settings.obj
 0002:00002ae4       ??_C@_08ELDJNHED@TryAgent?$AA@ 00448ae4     settings.obj
 0002:00002af0       ??_C@_08DEDMJEH@AgentFwd?$AA@ 00448af0     settings.obj
 0002:00002afc       ??_C@_09NHHDGKAI@GssapiFwd?$AA@ 00448afc     settings.obj
 0002:00002b08       ??_C@_0P@GIGKEPFI@ChangeUsername?$AA@ 00448b08     settings.obj
 0002:00002b18       ??_C@_06GMNODMGL@Cipher?$AA@ 00448b18     settings.obj
 0002:00002b20       ??_C@_03JGJNGHKI@KEX?$AA@  00448b20     settings.obj
 0002:00002b24       ??_C@_09BMHKJAKC@RekeyTime?$AA@ 00448b24     settings.obj
 0002:00002b30       ??_C@_0L@KEKIPMHA@RekeyBytes?$AA@ 00448b30     settings.obj
 0002:00002b3c       ??_C@_09KOEOFNAD@SshNoAuth?$AA@ 00448b3c     settings.obj
 0002:00002b48       ??_C@_09DKKEANNA@SshBanner?$AA@ 00448b48     settings.obj
 0002:00002b54       ??_C@_07FCPJEOBP@AuthTIS?$AA@ 00448b54     settings.obj
 0002:00002b5c       ??_C@_06HELEMNLA@AuthKI?$AA@ 00448b5c     settings.obj
 0002:00002b64       ??_C@_0L@CHDFIOCG@AuthGSSAPI?$AA@ 00448b64     settings.obj
 0002:00002b70       ??_C@_07LFMOFKKL@GSSLibs?$AA@ 00448b70     settings.obj
 0002:00002b78       ??_C@_09BHJOMFHD@GSSCustom?$AA@ 00448b78     settings.obj
 0002:00002b84       ??_C@_0L@GJCNFDMJ@SshNoShell?$AA@ 00448b84     settings.obj
 0002:00002b90       ??_C@_07IJKOAEAB@SshProt?$AA@ 00448b90     settings.obj
 0002:00002b98       ??_C@_07JKMCGKPM@LogHost?$AA@ 00448b98     settings.obj
 0002:00002ba0       ??_C@_07JIBCMKKI@SSH2DES?$AA@ 00448ba0     settings.obj
 0002:00002ba8       ??_C@_0O@DBKBLPLH@PublicKeyFile?$AA@ 00448ba8     settings.obj
 0002:00002bb8       ??_C@_0O@KIBMIAMB@RemoteCommand?$AA@ 00448bb8     settings.obj
 0002:00002bc8       ??_C@_0L@EKHPMACB@RFCEnviron?$AA@ 00448bc8     settings.obj
 0002:00002bd4       ??_C@_0O@NFKJOOLK@PassiveTelnet?$AA@ 00448bd4     settings.obj
 0002:00002be4       ??_C@_0BC@JNJDLGLL@BackspaceIsDelete?$AA@ 00448be4     settings.obj
 0002:00002bf8       ??_C@_0M@IAIPMGHM@RXVTHomeEnd?$AA@ 00448bf8     settings.obj
 0002:00002c04       ??_C@_0BC@BBBMIOEA@LinuxFunctionKeys?$AA@ 00448c04     settings.obj
 0002:00002c18       ??_C@_0BC@GFKFPOKF@NoApplicationKeys?$AA@ 00448c18     settings.obj
 0002:00002c2c       ??_C@_0BF@BNOOACFM@NoApplicationCursors?$AA@ 00448c2c     settings.obj
 0002:00002c44       ??_C@_0BB@LKDBJLNO@NoMouseReporting?$AA@ 00448c44     settings.obj
 0002:00002c58       ??_C@_0P@NHOBLDKM@NoRemoteResize?$AA@ 00448c58     settings.obj
 0002:00002c68       ??_C@_0M@NLLEMLGG@NoAltScreen?$AA@ 00448c68     settings.obj
 0002:00002c74       ??_C@_0BB@GFKNAPEB@NoRemoteWinTitle?$AA@ 00448c74     settings.obj
 0002:00002c88       ??_C@_0BD@NNAFOHOC@RemoteQTitleAction?$AA@ 00448c88     settings.obj
 0002:00002c9c       ??_C@_0N@CINAKFBC@NoDBackspace?$AA@ 00448c9c     settings.obj
 0002:00002cac       ??_C@_0BA@GBAEKIHO@NoRemoteCharset?$AA@ 00448cac     settings.obj
 0002:00002cbc       ??_C@_0BG@OMJCNGBD@ApplicationCursorKeys?$AA@ 00448cbc     settings.obj
 0002:00002cd4       ??_C@_0BC@LPJJOBAL@ApplicationKeypad?$AA@ 00448cd4     settings.obj
 0002:00002ce8       ??_C@_0O@ODHLPDBL@NetHackKeypad?$AA@ 00448ce8     settings.obj
 0002:00002cf8       ??_C@_05PNJLCIJH@AltF4?$AA@ 00448cf8     settings.obj
 0002:00002d00       ??_C@_08ONDFFNLC@AltSpace?$AA@ 00448d00     settings.obj
 0002:00002d0c       ??_C@_07BNCFDEPA@AltOnly?$AA@ 00448d0c     settings.obj
 0002:00002d14       ??_C@_0L@KHCMDGHF@ComposeKey?$AA@ 00448d14     settings.obj
 0002:00002d20       ??_C@_0M@IALMOGEC@CtrlAltKeys?$AA@ 00448d20     settings.obj
 0002:00002d2c       ??_C@_09EOCMDLLC@TelnetKey?$AA@ 00448d2c     settings.obj
 0002:00002d38       ??_C@_09NGJDFNOK@TelnetRet?$AA@ 00448d38     settings.obj
 0002:00002d44       ??_C@_09KJLHDNO@LocalEcho?$AA@ 00448d44     settings.obj
 0002:00002d50       ??_C@_09DPLIOKMK@LocalEdit?$AA@ 00448d50     settings.obj
 0002:00002d5c       ??_C@_0L@BALPGHLA@Answerback?$AA@ 00448d5c     settings.obj
 0002:00002d68       ??_C@_0M@LEOHJBHA@AlwaysOnTop?$AA@ 00448d68     settings.obj
 0002:00002d74       ??_C@_0BF@EHMMPINK@FullScreenOnAltEnter?$AA@ 00448d74     settings.obj
 0002:00002d8c       ??_C@_0N@LEODHNGP@HideMousePtr?$AA@ 00448d8c     settings.obj
 0002:00002d9c       ??_C@_0L@OGFBKFHD@SunkenEdge?$AA@ 00448d9c     settings.obj
 0002:00002da8       ??_C@_0N@IABNAJJO@WindowBorder?$AA@ 00448da8     settings.obj
 0002:00002db8       ??_C@_07FCKKMHHB@CurType?$AA@ 00448db8     settings.obj
 0002:00002dc0       ??_C@_08GKHGBCHI@BlinkCur?$AA@ 00448dc0     settings.obj
 0002:00002dcc       ??_C@_04HGDFHEMH@Beep?$AA@ 00448dcc     settings.obj
 0002:00002dd4       ??_C@_07CMMEKHFM@BeepInd?$AA@ 00448dd4     settings.obj
 0002:00002ddc       ??_C@_0N@BJJHCJCA@BellWaveFile?$AA@ 00448ddc     settings.obj
 0002:00002dec       ??_C@_0N@IPMNIPGA@BellOverload?$AA@ 00448dec     settings.obj
 0002:00002dfc       ??_C@_0O@CDMHMOFM@BellOverloadN?$AA@ 00448dfc     settings.obj
 0002:00002e0c       ??_C@_0O@JDOKDEIH@BellOverloadT?$AA@ 00448e0c     settings.obj
 0002:00002e1c       ??_C@_0O@NMKLKCEA@BellOverloadS?$AA@ 00448e1c     settings.obj
 0002:00002e2c       ??_C@_0BA@MABCDIFL@ScrollbackLines?$AA@ 00448e2c     settings.obj
 0002:00002e3c       ??_C@_0O@LEEOHPBE@DECOriginMode?$AA@ 00448e3c     settings.obj
 0002:00002e4c       ??_C@_0N@ILJAOEK@AutoWrapMode?$AA@ 00448e4c     settings.obj
 0002:00002e5c       ??_C@_0M@FNIJEIEH@LFImpliesCR?$AA@ 00448e5c     settings.obj
 0002:00002e68       ??_C@_0M@BEMAPABH@CRImpliesLF?$AA@ 00448e68     settings.obj
 0002:00002e74       ??_C@_0BF@JGEFHOEO@DisableArabicShaping?$AA@ 00448e74     settings.obj
 0002:00002e8c       ??_C@_0M@NDKNKJNC@DisableBidi?$AA@ 00448e8c     settings.obj
 0002:00002e98       ??_C@_0O@KBKLHJPB@WinNameAlways?$AA@ 00448e98     settings.obj
 0002:00002ea8       ??_C@_08KFMPIOHG@WinTitle?$AA@ 00448ea8     settings.obj
 0002:00002eb4       ??_C@_09HBFLKCJM@TermWidth?$AA@ 00448eb4     settings.obj
 0002:00002ec0       ??_C@_0L@OOPDCIKD@TermHeight?$AA@ 00448ec0     settings.obj
 0002:00002ecc       ??_C@_04IEDBBIIG@Font?$AA@ 00448ecc     settings.obj
 0002:00002ed4       ??_C@_0M@KJKEBPLJ@FontQuality?$AA@ 00448ed4     settings.obj
 0002:00002ee0       ??_C@_0L@HFLKBGMB@FontVTMode?$AA@ 00448ee0     settings.obj
 0002:00002eec       ??_C@_0BB@FPEGLBEG@UseSystemColours?$AA@ 00448eec     settings.obj
 0002:00002f00       ??_C@_0L@LIPCLLA@TryPalette?$AA@ 00448f00     settings.obj
 0002:00002f0c       ??_C@_0L@ICDFAFOH@ANSIColour?$AA@ 00448f0c     settings.obj
 0002:00002f18       ??_C@_0P@GNOFNGDF@Xterm256Colour?$AA@ 00448f18     settings.obj
 0002:00002f28       ??_C@_0N@OCJNFBJL@BoldAsColour?$AA@ 00448f28     settings.obj
 0002:00002f38       ??_C@_08INIFNAJK@Colour?$CFd?$AA@ 00448f38     settings.obj
 0002:00002f44       ??_C@_08GDAMKODC@?$CFd?0?$CFd?0?$CFd?$AA@ 00448f44     settings.obj
 0002:00002f50       ??_C@_06BHJNDCHC@RawCNP?$AA@ 00448f50     settings.obj
 0002:00002f58       ??_C@_08MHJGNOJI@PasteRTF?$AA@ 00448f58     settings.obj
 0002:00002f64       ??_C@_0N@FIBAMOBA@MouseIsXterm?$AA@ 00448f64     settings.obj
 0002:00002f74       ??_C@_0L@NFGMPOPM@RectSelect?$AA@ 00448f74     settings.obj
 0002:00002f80       ??_C@_0O@HLHLGPKK@MouseOverride?$AA@ 00448f80     settings.obj
 0002:00002f90       ??_C@_0L@BELKIKMP@Wordness?$CFd?$AA@ 00448f90     settings.obj
 0002:00002f9c       ??_C@_0N@HAKENDJO@LineCodePage?$AA@ 00448f9c     settings.obj
 0002:00002fac       ??_C@_0N@BPNEJBB@CJKAmbigWide?$AA@ 00448fac     settings.obj
 0002:00002fbc       ??_C@_0N@PIJCCBHN@UTF8Override?$AA@ 00448fbc     settings.obj
 0002:00002fcc       ??_C@_07KLNKAJI@Printer?$AA@ 00448fcc     settings.obj
 0002:00002fd4       ??_C@_0M@MBCMAAJO@CapsLockCyr?$AA@ 00448fd4     settings.obj
 0002:00002fe0       ??_C@_09POMGMCPK@ScrollBar?$AA@ 00448fe0     settings.obj
 0002:00002fec       ??_C@_0BE@KMIMBHDM@ScrollBarFullScreen?$AA@ 00448fec     settings.obj
 0002:00003000       ??_C@_0M@JIDFKMDN@ScrollOnKey?$AA@ 00449000     settings.obj
 0002:0000300c       ??_C@_0N@LCNOKNPE@ScrollOnDisp?$AA@ 0044900c     settings.obj
 0002:0000301c       ??_C@_0BC@POFKFLGE@EraseToScrollback?$AA@ 0044901c     settings.obj
 0002:00003030       ??_C@_08IIIHHPEC@LockSize?$AA@ 00449030     settings.obj
 0002:0000303c       ??_C@_03BAHEDIIM@BCE?$AA@  0044903c     settings.obj
 0002:00003040       ??_C@_09JKKJKKDF@BlinkText?$AA@ 00449040     settings.obj
 0002:0000304c       ??_C@_0L@KCBEKKGN@X11Forward?$AA@ 0044904c     settings.obj
 0002:00003058       ??_C@_0L@OJPLDOHH@X11Display?$AA@ 00449058     settings.obj
 0002:00003064       ??_C@_0M@JGIOOIKI@X11AuthType?$AA@ 00449064     settings.obj
 0002:00003070       ??_C@_0M@MJILCBMB@X11AuthFile?$AA@ 00449070     settings.obj
 0002:0000307c       ??_C@_0BD@JODMNHAM@LocalPortAcceptAll?$AA@ 0044907c     settings.obj
 0002:00003090       ??_C@_0BE@NGBGOEKN@RemotePortAcceptAll?$AA@ 00449090     settings.obj
 0002:000030a4       ??_C@_0BA@DEGJFOOK@PortForwardings?$AA@ 004490a4     settings.obj
 0002:000030b4       ??_C@_0L@CKBGAPPJ@BugIgnore1?$AA@ 004490b4     settings.obj
 0002:000030c0       ??_C@_0M@FBLBOFAP@BugPlainPW1?$AA@ 004490c0     settings.obj
 0002:000030cc       ??_C@_07HGKKPJMK@BugRSA1?$AA@ 004490cc     settings.obj
 0002:000030d4       ??_C@_0L@BDLFMDK@BugIgnore2?$AA@ 004490d4     settings.obj
 0002:000030e0       ??_C@_08LMFPGBAG@BugHMAC2?$AA@ 004490e0     settings.obj
 0002:000030ec       ??_C@_0O@HHCGBINB@BugDeriveKey2?$AA@ 004490ec     settings.obj
 0002:000030fc       ??_C@_0L@OKCDPKPE@BugRSAPad2?$AA@ 004490fc     settings.obj
 0002:00003108       ??_C@_0N@EAJDOHJN@BugPKSessID2?$AA@ 00449108     settings.obj
 0002:00003118       ??_C@_09FOBJEPJI@BugRekey2?$AA@ 00449118     settings.obj
 0002:00003124       ??_C@_0L@CAKKHIHJ@BugMaxPkt2?$AA@ 00449124     settings.obj
 0002:00003130       ??_C@_09FKPNFPBM@BugWinadj?$AA@ 00449130     settings.obj
 0002:0000313c       ??_C@_09GFIFOOCP@StampUtmp?$AA@ 0044913c     settings.obj
 0002:00003148       ??_C@_0L@ODMMKNII@LoginShell?$AA@ 00449148     settings.obj
 0002:00003154       ??_C@_0BA@JCLCLPLH@ScrollbarOnLeft?$AA@ 00449154     settings.obj
 0002:00003164       ??_C@_08ICMGAJHO@BoldFont?$AA@ 00449164     settings.obj
 0002:00003170       ??_C@_08FKENJKAF@WideFont?$AA@ 00449170     settings.obj
 0002:0000317c       ??_C@_0N@HNHKBGGM@WideBoldFont?$AA@ 0044917c     settings.obj
 0002:0000318c       ??_C@_0L@MCFOPLPK@ShadowBold?$AA@ 0044918c     settings.obj
 0002:00003198       ??_C@_0BB@DEENLAPN@ShadowBoldOffset?$AA@ 00449198     settings.obj
 0002:000031ac       ??_C@_0L@IAACJGLI@SerialLine?$AA@ 004491ac     settings.obj
 0002:000031b8       ??_C@_0M@IMNKFFDH@SerialSpeed?$AA@ 004491b8     settings.obj
 0002:000031c4       ??_C@_0P@PNCDCCLH@SerialDataBits?$AA@ 004491c4     settings.obj
 0002:000031d4       ??_C@_0BD@GNGKCION@SerialStopHalfbits?$AA@ 004491d4     settings.obj
 0002:000031e8       ??_C@_0N@DLJOCBBM@SerialParity?$AA@ 004491e8     settings.obj
 0002:000031f8       ??_C@_0BC@BGBNEFKO@SerialFlowControl?$AA@ 004491f8     settings.obj
 0002:0000320c       ??_C@_0M@NMEBEKD@WindowClass?$AA@ 0044920c     settings.obj
 0002:00003218       ??_C@_07DLHCIBDH@default?$AA@ 00449218     settings.obj
 0002:00003220       ??_C@_05COMADJBK@xterm?$AA@ 00449220     settings.obj
 0002:00003228       ??_C@_0M@CABGKPOJ@38400?038400?$AA@ 00449228     settings.obj
 0002:00003234       ??_C@_01FHEEJDEE@A?$AA@    00449234     settings.obj
 0002:00003238       ??_C@_09BGIKPLGP@ProxyType?$AA@ 00449238     settings.obj
 0002:00003244       ??_C@_0BC@FOBJKCLC@ProxySOCKSVersion?$AA@ 00449244     settings.obj
 0002:00003258       ??_C@_05BFHPMDA@proxy?$AA@ 00449258     settings.obj
 0002:00003260       ??_C@_0BG@GKDLINPC@connect?5?$CFhost?5?$CFport?2n?$AA@ 00449260     settings.obj
 0002:00003278       ??_C@_11LOCGONAA@?$AA?$AA@ 00449278     LIBCMT:winapinls.obj
 0002:00003278       ??_C@_01LOCGONAA@?$AA?$AA@ 00449278     settings.obj
 0002:0000327c       ??_C@_09EEOEPHII@BugDHGEx2?$AA@ 0044927c     settings.obj
 0002:00003288       ??_C@_0DE@IBDFHALG@dh?9group14?9sha1?0dh?9group1?9sha1?0r@ 00449288     settings.obj
 0002:000032bc       ??_C@_0DE@HLPMGGDH@dh?9gex?9sha1?0dh?9group14?9sha1?0dh?9g@ 004492bc     settings.obj
 0002:000032f0       ??_C@_02JKCPHAII@1G?$AA@   004492f0     settings.obj
 0002:000032f4       ??_C@_0P@LJKHKCJK@NoRemoteQTitle?$AA@ 004492f4     settings.obj
 0002:00003304       ??_C@_05DHCCMBJA@PuTTY?$AA@ 00449304     settings.obj
 0002:0000330c       ??_C@_08GBHCOLMC@BuggyMAC?$AA@ 0044930c     settings.obj
 0002:00003318       ??_C@_0BB@PMGECFAG@Default?5Settings?$AA@ 00449318     settings.obj
 0002:00003350       ??_C@_0BH@MEKFPJGG@unexpected?5OK?5response?$AA@ 00449350     sftp.obj
 0002:00003368       ??_C@_0M@IDJOOACD@end?5of?5file?$AA@ 00449368     sftp.obj
 0002:00003374       ??_C@_0BK@NDOCBPGE@no?5such?5file?5or?5directory?$AA@ 00449374     sftp.obj
 0002:00003390       ??_C@_0BC@CIJDGCDI@permission?5denied?$AA@ 00449390     sftp.obj
 0002:000033a4       ??_C@_07MBLPHJFH@failure?$AA@ 004493a4     sftp.obj
 0002:000033ac       ??_C@_0M@PMMIEFCP@bad?5message?$AA@ 004493ac     sftp.obj
 0002:000033b8       ??_C@_0O@EFMNOFHN@no?5connection?$AA@ 004493b8     sftp.obj
 0002:000033c8       ??_C@_0BA@CHAAGJKB@connection?5lost?$AA@ 004493c8     sftp.obj
 0002:000033d8       ??_C@_0BG@HIGMDFMO@operation?5unsupported?$AA@ 004493d8     sftp.obj
 0002:000033f0       ??_C@_1BE@MOJIBJKE@?$AA?4?$AA?4?$AA?2?$AAs?$AAf?$AAt?$AAp?$AA?4?$AAc?$AA?$AA@ 004493f0     sftp.obj
 0002:00003408       ??_C@_1GC@BPHOKDPD@?$AAN?$AAU?$AAL?$AAL?$AA?5?$AA?$DN?$AA?$DN?$AA?5?$AAf?$AAi?$AAn?$AAd?$AA2?$AA3?$AA4?$AA?$CI?$AAs?$AAf?$AAt?$AAp?$AA_?$AAr?$AAe?$AAq?$AAu?$AAe?$AAs?$AAt?$AAs?$AA?0?$AA?5?$AA?$CG@ 00449408     sftp.obj
 0002:0000346c       ??_C@_0CF@NIOKEKLL@did?5not?5receive?5a?5valid?5SFTP?5pac@ 0044946c     sftp.obj
 0002:00003494       ??_C@_0BF@NKHOFAM@request?5ID?5mismatch?6?$AA@ 00449494     sftp.obj
 0002:000034ac       ??_C@_0BL@ECIJKKOL@expected?5FXP_STATUS?5packet?$AA@ 004494ac     sftp.obj
 0002:000034c8       ??_C@_0BM@MNGOPDFD@malformed?5FXP_STATUS?5packet?$AA@ 004494c8     sftp.obj
 0002:000034e4       ??_C@_0BD@KFLAIOGJ@unknown?5error?5code?$AA@ 004494e4     sftp.obj
 0002:000034f8       ??_C@_0BC@OBHFAANF@could?5not?5connect?$AA@ 004494f8     sftp.obj
 0002:0000350c       ??_C@_0BM@EKNANIOJ@did?5not?5receive?5FXP_VERSION?$AA@ 0044950c     sftp.obj
 0002:00003528       ??_C@_0BN@BFEAMPBL@malformed?5FXP_VERSION?5packet?$AA@ 00449528     sftp.obj
 0002:00003548       ??_C@_0DB@DKEFLDEL@remote?5protocol?5is?5more?5advanced@ 00449548     sftp.obj
 0002:0000357c       ??_C@_0CE@MHGADOBH@OPEN?5returned?5malformed?5FXP_HAND@ 0044957c     sftp.obj
 0002:000035a0       ??_C@_0CH@CKLMGPNC@OPENDIR?5returned?5malformed?5FXP_H@ 004495a0     sftp.obj
 0002:000035c8       ??_C@_0BP@IEALGBMG@malformed?5SSH_FXP_ATTRS?5packet?$AA@ 004495c8     sftp.obj
 0002:000035e8       ??_C@_0CM@HCLNKABL@READ?5returned?5malformed?5SSH_FXP_@ 004495e8     sftp.obj
 0002:00003614       ??_C@_0CI@EHDIHHKI@READ?5returned?5more?5bytes?5than?5re@ 00449614     sftp.obj
 0002:0000363c       ??_C@_0BK@BNJGEBNE@malformed?5FXP_NAME?5packet?$AA@ 0044963c     sftp.obj
 0002:00003658       ??_C@_0CD@GJDBKENL@unreasonably?5large?5FXP_NAME?5pack@ 00449658     sftp.obj
 0002:0000367c       ??_C@_0DG@MNLJKCBN@received?5a?5short?5buffer?5from?5FXP@ 0044967c     sftp.obj
 0002:00003a6c       ??_C@_04CGFJFPFD@none?$AA@ 00449a6c     ssh.obj
 0002:00003a74       ??_C@_0BG@ILOGDLGJ@?$DMunknown?5reason?5code?$DO?$AA@ 00449a74     ssh.obj
 0002:00003a8c       ??_C@_0BM@MLKKDNH@Administratively?5prohibited?$AA@ 00449a8c     ssh.obj
 0002:00003aa8       ??_C@_0P@NCGOJFHC@Connect?5failed?$AA@ 00449aa8     ssh.obj
 0002:00003ab8       ??_C@_0BF@KCHANALO@Unknown?5channel?5type?$AA@ 00449ab8     ssh.obj
 0002:00003ad0       ??_C@_0BC@MANFJOBN@Resource?5shortage?$AA@ 00449ad0     ssh.obj
 0002:00003ae4       ??_C@_0P@BINBLDHK@IGNORE?5message?$AA@ 00449ae4     ssh.obj
 0002:00003af4       ??_C@_0BE@KMGKOCMI@Repeat?5key?5exchange?$AA@ 00449af4     ssh.obj
 0002:00003b08       ??_C@_05EMFLFCNO@Break?$AA@ 00449b08     ssh.obj
 0002:00003b10       ??_C@_0BD@IHBJPNFD@SIGINT?5?$CIInterrupt?$CJ?$AA@ 00449b10     ssh.obj
 0002:00003b24       ??_C@_0BE@FOOFEKIL@SIGTERM?5?$CITerminate?$CJ?$AA@ 00449b24     ssh.obj
 0002:00003b38       ??_C@_0P@EIOPNBJC@SIGKILL?5?$CIKill?$CJ?$AA@ 00449b38     ssh.obj
 0002:00003b48       ??_C@_0P@NJKLPAKK@SIGQUIT?5?$CIQuit?$CJ?$AA@ 00449b48     ssh.obj
 0002:00003b58       ??_C@_0BA@KFLHJEOB@SIGHUP?5?$CIHangup?$CJ?$AA@ 00449b58     ssh.obj
 0002:00003b68       ??_C@_0N@IKNKPMOI@More?5signals?$AA@ 00449b68     ssh.obj
 0002:00003b78       ??_C@_07GHNLFNAM@SIGABRT?$AA@ 00449b78     ssh.obj
 0002:00003b80       ??_C@_07BMAEIDCH@SIGALRM?$AA@ 00449b80     ssh.obj
 0002:00003b88       ??_C@_06ONOHJOEH@SIGFPE?$AA@ 00449b88     ssh.obj
 0002:00003b90       ??_C@_06HBHKGPEM@SIGILL?$AA@ 00449b90     ssh.obj
 0002:00003b98       ??_C@_07LNAHJDEB@SIGPIPE?$AA@ 00449b98     ssh.obj
 0002:00003ba0       ??_C@_07MIPHKCEO@SIGSEGV?$AA@ 00449ba0     ssh.obj
 0002:00003ba8       ??_C@_07CJEMDFG@SIGUSR1?$AA@ 00449ba8     ssh.obj
 0002:00003bb0       ??_C@_07CJLJJAJF@SIGUSR2?$AA@ 00449bb0     ssh.obj
 0002:00003bb8       ??_C@_0BM@LFLPECGJ@host?5not?5allowed?5to?5connect?$AA@ 00449bb8     ssh.obj
 0002:00003bd4       ??_C@_0P@FNPOCJBE@protocol?5error?$AA@ 00449bd4     ssh.obj
 0002:00003be4       ??_C@_0BE@GFGODIJH@key?5exchange?5failed?$AA@ 00449be4     ssh.obj
 0002:00003bf8       ??_C@_0BL@KLILJNNA@host?5authentication?5failed?$AA@ 00449bf8     ssh.obj
 0002:00003c14       ??_C@_09JCOICCHH@MAC?5error?$AA@ 00449c14     ssh.obj
 0002:00003c20       ??_C@_0BC@NKDLBFJI@compression?5error?$AA@ 00449c20     ssh.obj
 0002:00003c34       ??_C@_0BG@BMBMFNNB@service?5not?5available?$AA@ 00449c34     ssh.obj
 0002:00003c4c       ??_C@_0BP@GPJFNEKA@protocol?5version?5not?5supported?$AA@ 00449c4c     ssh.obj
 0002:00003c6c       ??_C@_0BI@IJIAGFPA@host?5key?5not?5verifiable?$AA@ 00449c6c     ssh.obj
 0002:00003c84       ??_C@_0P@HAMDIPID@by?5application?$AA@ 00449c84     ssh.obj
 0002:00003c94       ??_C@_0BF@MIMMPJGN@too?5many?5connections?$AA@ 00449c94     ssh.obj
 0002:00003cac       ??_C@_0BH@JBGDCBIP@auth?5cancelled?5by?5user?$AA@ 00449cac     ssh.obj
 0002:00003cc4       ??_C@_0BP@IHKHAHIL@no?5more?5auth?5methods?5available?$AA@ 00449cc4     ssh.obj
 0002:00003ce4       ??_C@_0BC@NPLJLHOH@illegal?5user?5name?$AA@ 00449ce4     ssh.obj
 0002:00003cf8       ??_C@_03FMKCBIDH@ssh?$AA@  00449cf8     ssh.obj
 0002:00003cfc       ??_C@_03ICICOMAL@yes?$AA@  00449cfc     ssh.obj
 0002:00003d00       ??_C@_02LIELOMNJ@on?$AA@   00449d00     ssh.obj
 0002:00003d04       ??_C@_04LOAJBDKD@true?$AA@ 00449d04     ssh.obj
 0002:00003d0c       ??_C@_01MIFGBAGJ@?$CL?$AA@ 00449d0c     ssh.obj
 0002:00003d10       ??_C@_02KAJCLHKP@no?$AA@   00449d10     ssh.obj
 0002:00003d14       ??_C@_03MCADLMAF@off?$AA@  00449d14     ssh.obj
 0002:00003d18       ??_C@_05LAPONLG@false?$AA@ 00449d18     ssh.obj
 0002:00003d20       ??_C@_01JOAMLHOP@?9?$AA@   00449d20     ssh.obj
 0002:00003d24       ??_C@_0BE@EJPEKCJH@SSH1_MSG_DISCONNECT?$AA@ 00449d24     ssh.obj
 0002:00003d38       ??_C@_0BF@EMBHAOBH@SSH1_SMSG_PUBLIC_KEY?$AA@ 00449d38     ssh.obj
 0002:00003d50       ??_C@_0BG@PCGDDLML@SSH1_CMSG_SESSION_KEY?$AA@ 00449d50     ssh.obj
 0002:00003d68       ??_C@_0P@EFPMEAFD@SSH1_CMSG_USER?$AA@ 00449d68     ssh.obj
 0002:00003d78       ??_C@_0BD@BPOFOLMB@SSH1_CMSG_AUTH_RSA?$AA@ 00449d78     ssh.obj
 0002:00003d8c       ??_C@_0BN@PMFHDJLD@SSH1_SMSG_AUTH_RSA_CHALLENGE?$AA@ 00449d8c     ssh.obj
 0002:00003dac       ??_C@_0BM@PLPHFPJM@SSH1_CMSG_AUTH_RSA_RESPONSE?$AA@ 00449dac     ssh.obj
 0002:00003dc8       ??_C@_0BI@GPCCNJIG@SSH1_CMSG_AUTH_PASSWORD?$AA@ 00449dc8     ssh.obj
 0002:00003de0       ??_C@_0BG@NBEJAFMC@SSH1_CMSG_REQUEST_PTY?$AA@ 00449de0     ssh.obj
 0002:00003df8       ??_C@_0BG@CFKOCBBJ@SSH1_CMSG_WINDOW_SIZE?$AA@ 00449df8     ssh.obj
 0002:00003e10       ??_C@_0BF@DAINOGIA@SSH1_CMSG_EXEC_SHELL?$AA@ 00449e10     ssh.obj
 0002:00003e28       ??_C@_0BD@PBAIICGA@SSH1_CMSG_EXEC_CMD?$AA@ 00449e28     ssh.obj
 0002:00003e3c       ??_C@_0BC@ODEPJAKH@SSH1_SMSG_SUCCESS?$AA@ 00449e3c     ssh.obj
 0002:00003e50       ??_C@_0BC@CKANCLPN@SSH1_SMSG_FAILURE?$AA@ 00449e50     ssh.obj
 0002:00003e64       ??_C@_0BF@LBCLKBNP@SSH1_CMSG_STDIN_DATA?$AA@ 00449e64     ssh.obj
 0002:00003e7c       ??_C@_0BG@GEPJLIMO@SSH1_SMSG_STDOUT_DATA?$AA@ 00449e7c     ssh.obj
 0002:00003e94       ??_C@_0BG@JIMCAOHD@SSH1_SMSG_STDERR_DATA?$AA@ 00449e94     ssh.obj
 0002:00003eac       ??_C@_0O@MIHBEILN@SSH1_CMSG_EOF?$AA@ 00449eac     ssh.obj
 0002:00003ebc       ??_C@_0BG@LOBMNFLF@SSH1_SMSG_EXIT_STATUS?$AA@ 00449ebc     ssh.obj
 0002:00003ed4       ??_C@_0CD@GGBBMHDM@SSH1_MSG_CHANNEL_OPEN_CONFIRMATI@ 00449ed4     ssh.obj
 0002:00003ef8       ??_C@_0BO@KPDAIAKO@SSH1_MSG_CHANNEL_OPEN_FAILURE?$AA@ 00449ef8     ssh.obj
 0002:00003f18       ??_C@_0BG@MLJJJADE@SSH1_MSG_CHANNEL_DATA?$AA@ 00449f18     ssh.obj
 0002:00003f30       ??_C@_0BH@NBFOIFOM@SSH1_MSG_CHANNEL_CLOSE?$AA@ 00449f30     ssh.obj
 0002:00003f48       ??_C@_0CE@MILAPJML@SSH1_MSG_CHANNEL_CLOSE_CONFIRMAT@ 00449f48     ssh.obj
 0002:00003f6c       ??_C@_0BD@LPBCEAKD@SSH1_SMSG_X11_OPEN?$AA@ 00449f6c     ssh.obj
 0002:00003f80       ??_C@_0BP@GHDPAAHA@SSH1_CMSG_PORT_FORWARD_REQUEST?$AA@ 00449f80     ssh.obj
 0002:00003fa0       ??_C@_0BD@PJLBMAAH@SSH1_MSG_PORT_OPEN?$AA@ 00449fa0     ssh.obj
 0002:00003fb4       ??_C@_0CD@EJJCHBAH@SSH1_CMSG_AGENT_REQUEST_FORWARDI@ 00449fb4     ssh.obj
 0002:00003fd8       ??_C@_0BF@LGBGNCBJ@SSH1_SMSG_AGENT_OPEN?$AA@ 00449fd8     ssh.obj
 0002:00003ff0       ??_C@_0BA@PHJHFNMD@SSH1_MSG_IGNORE?$AA@ 00449ff0     ssh.obj
 0002:00004000       ??_C@_0BM@PPHECPOE@SSH1_CMSG_EXIT_CONFIRMATION?$AA@ 0044a000     ssh.obj
 0002:0000401c       ??_C@_0CB@NEMJNOGE@SSH1_CMSG_X11_REQUEST_FORWARDING@ 0044a01c     ssh.obj
 0002:00004040       ??_C@_0BK@DDNNODND@SSH1_CMSG_AUTH_RHOSTS_RSA?$AA@ 0044a040     ssh.obj
 0002:0000405c       ??_C@_0P@FJDABEDP@SSH1_MSG_DEBUG?$AA@ 0044a05c     ssh.obj
 0002:0000406c       ??_C@_0BO@FLIGKACB@SSH1_CMSG_REQUEST_COMPRESSION?$AA@ 0044a06c     ssh.obj
 0002:0000408c       ??_C@_0BD@FDMLOCGI@SSH1_CMSG_AUTH_TIS?$AA@ 0044a08c     ssh.obj
 0002:000040a0       ??_C@_0BN@GKOOMBJK@SSH1_SMSG_AUTH_TIS_CHALLENGE?$AA@ 0044a0a0     ssh.obj
 0002:000040c0       ??_C@_0BM@ELKHPING@SSH1_CMSG_AUTH_TIS_RESPONSE?$AA@ 0044a0c0     ssh.obj
 0002:000040dc       ??_C@_0BF@LGHOPEHJ@SSH1_CMSG_AUTH_CCARD?$AA@ 0044a0dc     ssh.obj
 0002:000040f4       ??_C@_0BP@GHOPGFIB@SSH1_SMSG_AUTH_CCARD_CHALLENGE?$AA@ 0044a0f4     ssh.obj
 0002:00004114       ??_C@_0BO@HOAMHMHO@SSH1_CMSG_AUTH_CCARD_RESPONSE?$AA@ 0044a114     ssh.obj
 0002:00004134       ??_C@_0CC@BMGHDOON@SSH2_MSG_USERAUTH_GSSAPI_RESPONS@ 0044a134     ssh.obj
 0002:00004158       ??_C@_0BP@HFOHOMMB@SSH2_MSG_USERAUTH_GSSAPI_TOKEN?$AA@ 0044a158     ssh.obj
 0002:00004178       ??_C@_0CL@KDINBLFN@SSH2_MSG_USERAUTH_GSSAPI_EXCHANG@ 0044a178     ssh.obj
 0002:000041a4       ??_C@_0BP@ODOMKOFC@SSH2_MSG_USERAUTH_GSSAPI_ERROR?$AA@ 0044a1a4     ssh.obj
 0002:000041c4       ??_C@_0CA@FONKKAF@SSH2_MSG_USERAUTH_GSSAPI_ERRTOK?$AA@ 0044a1c4     ssh.obj
 0002:000041e4       ??_C@_0BN@KAKDGMOB@SSH2_MSG_USERAUTH_GSSAPI_MIC?$AA@ 0044a1e4     ssh.obj
 0002:00004204       ??_C@_0BE@BKGOPJBD@SSH2_MSG_DISCONNECT?$AA@ 0044a204     ssh.obj
 0002:00004218       ??_C@_0BA@EKFNDBAN@SSH2_MSG_IGNORE?$AA@ 0044a218     ssh.obj
 0002:00004228       ??_C@_0BH@IPHHGPHC@SSH2_MSG_UNIMPLEMENTED?$AA@ 0044a228     ssh.obj
 0002:00004240       ??_C@_0P@COKOMGMP@SSH2_MSG_DEBUG?$AA@ 0044a240     ssh.obj
 0002:00004250       ??_C@_0BJ@PLJPHFFB@SSH2_MSG_SERVICE_REQUEST?$AA@ 0044a250     ssh.obj
 0002:0000426c       ??_C@_0BI@LIMFKANN@SSH2_MSG_SERVICE_ACCEPT?$AA@ 0044a26c     ssh.obj
 0002:00004284       ??_C@_0BB@DMIMKKON@SSH2_MSG_KEXINIT?$AA@ 0044a284     ssh.obj
 0002:00004298       ??_C@_0BB@HLJMPHIK@SSH2_MSG_NEWKEYS?$AA@ 0044a298     ssh.obj
 0002:000042ac       ??_C@_0BE@HOKBELOI@SSH2_MSG_KEXDH_INIT?$AA@ 0044a2ac     ssh.obj
 0002:000042c0       ??_C@_0BF@OEDDAEII@SSH2_MSG_KEXDH_REPLY?$AA@ 0044a2c0     ssh.obj
 0002:000042d8       ??_C@_0BM@GGJNIDJL@SSH2_MSG_KEX_DH_GEX_REQUEST?$AA@ 0044a2d8     ssh.obj
 0002:000042f4       ??_C@_0BK@CIFJHENI@SSH2_MSG_KEX_DH_GEX_GROUP?$AA@ 0044a2f4     ssh.obj
 0002:00004310       ??_C@_0BJ@IIMOAMHJ@SSH2_MSG_KEX_DH_GEX_INIT?$AA@ 0044a310     ssh.obj
 0002:0000432c       ??_C@_0BK@GDMNMIBN@SSH2_MSG_KEX_DH_GEX_REPLY?$AA@ 0044a32c     ssh.obj
 0002:00004348       ??_C@_0BH@KPBOGAFF@SSH2_MSG_KEXRSA_PUBKEY?$AA@ 0044a348     ssh.obj
 0002:00004360       ??_C@_0BH@DIPPDHLL@SSH2_MSG_KEXRSA_SECRET?$AA@ 0044a360     ssh.obj
 0002:00004378       ??_C@_0BF@EBKOABAJ@SSH2_MSG_KEXRSA_DONE?$AA@ 0044a378     ssh.obj
 0002:00004390       ??_C@_0BK@JKMNCPHK@SSH2_MSG_USERAUTH_REQUEST?$AA@ 0044a390     ssh.obj
 0002:000043ac       ??_C@_0BK@BGAEFPAF@SSH2_MSG_USERAUTH_FAILURE?$AA@ 0044a3ac     ssh.obj
 0002:000043c8       ??_C@_0BK@NPEGOEFP@SSH2_MSG_USERAUTH_SUCCESS?$AA@ 0044a3c8     ssh.obj
 0002:000043e4       ??_C@_0BJ@JOGGGGDI@SSH2_MSG_USERAUTH_BANNER?$AA@ 0044a3e4     ssh.obj
 0002:00004400       ??_C@_0BI@PENMGHKN@SSH2_MSG_USERAUTH_PK_OK?$AA@ 0044a400     ssh.obj
 0002:00004418       ??_C@_0CD@FMCAJMAP@SSH2_MSG_USERAUTH_PASSWD_CHANGER@ 0044a418     ssh.obj
 0002:0000443c       ??_C@_0BP@NDNMDJMP@SSH2_MSG_USERAUTH_INFO_REQUEST?$AA@ 0044a43c     ssh.obj
 0002:0000445c       ??_C@_0CA@KMNILJKE@SSH2_MSG_USERAUTH_INFO_RESPONSE?$AA@ 0044a45c     ssh.obj
 0002:0000447c       ??_C@_0BI@JKCMIJJI@SSH2_MSG_GLOBAL_REQUEST?$AA@ 0044a47c     ssh.obj
 0002:00004494       ??_C@_0BJ@LCEHAFGM@SSH2_MSG_REQUEST_SUCCESS?$AA@ 0044a494     ssh.obj
 0002:000044b0       ??_C@_0BJ@HLAFLODG@SSH2_MSG_REQUEST_FAILURE?$AA@ 0044a4b0     ssh.obj
 0002:000044cc       ??_C@_0BG@GNMGMCPO@SSH2_MSG_CHANNEL_OPEN?$AA@ 0044a4cc     ssh.obj
 0002:000044e4       ??_C@_0CD@KPAOMPID@SSH2_MSG_CHANNEL_OPEN_CONFIRMATI@ 0044a4e4     ssh.obj
 0002:00004508       ??_C@_0BO@BMKEKNGN@SSH2_MSG_CHANNEL_OPEN_FAILURE?$AA@ 0044a508     ssh.obj
 0002:00004528       ??_C@_0BP@FFNIIMBL@SSH2_MSG_CHANNEL_WINDOW_ADJUST?$AA@ 0044a528     ssh.obj
 0002:00004548       ??_C@_0BG@GIMPBGJN@SSH2_MSG_CHANNEL_DATA?$AA@ 0044a548     ssh.obj
 0002:00004560       ??_C@_0BP@GCFILKHG@SSH2_MSG_CHANNEL_EXTENDED_DATA?$AA@ 0044a560     ssh.obj
 0002:00004580       ??_C@_0BF@NJKICOGI@SSH2_MSG_CHANNEL_EOF?$AA@ 0044a580     ssh.obj
 0002:00004598       ??_C@_0BH@HOPHMICG@SSH2_MSG_CHANNEL_CLOSE?$AA@ 0044a598     ssh.obj
 0002:000045b0       ??_C@_0BJ@HFFJFNMF@SSH2_MSG_CHANNEL_REQUEST?$AA@ 0044a5b0     ssh.obj
 0002:000045cc       ??_C@_0BJ@DANCJGOA@SSH2_MSG_CHANNEL_SUCCESS?$AA@ 0044a5cc     ssh.obj
 0002:000045e8       ??_C@_0BJ@PJJACNLK@SSH2_MSG_CHANNEL_FAILURE?$AA@ 0044a5e8     ssh.obj
 0002:00004604       ??_C@_1BC@LPFNKHFH@?$AA?4?$AA?4?$AA?2?$AAs?$AAs?$AAh?$AA?4?$AAc?$AA?$AA@ 0044a604     ssh.obj
 0002:00004618       ??_C@_1GI@BILFNPBA@?$AAN?$AAU?$AAL?$AAL?$AA?5?$AA?$DN?$AA?$DN?$AA?5?$AAf?$AAi?$AAn?$AAd?$AA2?$AA3?$AA4?$AA?$CI?$AAs?$AAs?$AAh?$AA?9?$AA?$DO?$AAc?$AAh?$AAa?$AAn?$AAn?$AAe?$AAl?$AAs?$AA?0?$AA?5?$AA?$CG@ 0044a618     ssh.obj
 0002:00004680       ??_C@_0EK@ONAHKCJB@Extremely?5large?5packet?5length?5fr@ 0044a680     ssh.obj
 0002:000046cc       ??_C@_0CM@ONOGIJID@Network?5attack?5?$CICRC?5compensation@ 0044a6cc     ssh.obj
 0002:000046f8       ??_C@_0CB@NDPIGBGP@Incorrect?5CRC?5received?5on?5packet@ 0044a6f8     ssh.obj
 0002:0000471c       ??_C@_0CM@OBCNCOIA@Zlib?5decompression?5encountered?5i@ 0044a71c     ssh.obj
 0002:00004748       ??_C@_0BP@GHMPBFJJ@No?5valid?5incoming?5packet?5found?$AA@ 0044a748     ssh.obj
 0002:00004768       ??_C@_0CK@ECJKOKNK@Incoming?5packet?5was?5garbled?5on?5d@ 0044a768     ssh.obj
 0002:00004794       ??_C@_0CB@KOAELHDC@Incorrect?5MAC?5received?5on?5packet@ 0044a794     ssh.obj
 0002:000047b8       ??_C@_0CK@IGCLCJND@Invalid?5padding?5length?5on?5receiv@ 0044a7b8     ssh.obj
 0002:000047e4       ??_C@_1BE@PAKOFCHD@?$AAp?$AAk?$AAt?$AA?9?$AA?$DO?$AAb?$AAo?$AAd?$AAy?$AA?$AA@ 0044a7e4     ssh.obj
 0002:000047f8       ??_C@_1BO@CHCCGLPN@?$AAp?$AAa?$AAd?$AAd?$AAi?$AAn?$AAg?$AA?5?$AA?$DM?$AA?$DN?$AA?5?$AA2?$AA5?$AA5?$AA?$AA@ 0044a7f8     ssh.obj
 0002:00004818       ??_C@_0BD@OGEJALLK@too?5much?5data?5sent?$AA@ 0044a818     ssh.obj
 0002:0000482c       ??_C@_1BM@OGKDJOBK@?$AAs?$AAs?$AAh?$AA?9?$AA?$DO?$AAq?$AAu?$AAe?$AAu?$AAe?$AAi?$AAn?$AAg?$AA?$AA@ 0044a82c     ssh.obj
 0002:00004848       ??_C@_1BO@LLGPEMEK@?$AA?$CB?$AAs?$AAs?$AAh?$AA?9?$AA?$DO?$AAq?$AAu?$AAe?$AAu?$AAe?$AAi?$AAn?$AAg?$AA?$AA@ 0044a848     ssh.obj
 0002:00004868       ??_C@_1DI@OOPNHGKJ@?$AAp?$AAk?$AAt?$AA?9?$AA?$DO?$AAs?$AAa?$AAv?$AAe?$AAd?$AAp?$AAo?$AAs?$AA?5?$AA?$DM?$AA?5?$AAp?$AAk?$AAt?$AA?9?$AA?$DO?$AAl?$AAe?$AAn?$AAg?$AAt?$AAh?$AA?$AA@ 0044a868     ssh.obj
 0002:000048a0       ??_C@_07FDBDPOCJ@ssh?9rsa?$AA@ 0044a8a0     ssh.obj
 0002:000048a8       ??_C@_06PIBLOKJG@1?42?418?$AA@ 0044a8a8     ssh.obj
 0002:000048b0       ??_C@_06OBAANLNH@1?42?419?$AA@ 0044a8b0     ssh.obj
 0002:000048b8       ??_C@_06DCIENOMH@1?42?420?$AA@ 0044a8b8     ssh.obj
 0002:000048c0       ??_C@_06CLJPOPIG@1?42?421?$AA@ 0044a8c0     ssh.obj
 0002:000048c8       ??_C@_06LCLMEF@1?42?422?$AA@ 0044a8c8     ssh.obj
 0002:000048d0       ??_C@_0L@PONENGJI@Cisco?91?425?$AA@ 0044a8d0     ssh.obj
 0002:000048dc       ??_C@_0O@OGPLAELK@OSU_1?44alpha3?$AA@ 0044a8dc     ssh.obj
 0002:000048ec       ??_C@_0O@GFBAJCOD@OSU_1?45alpha4?$AA@ 0044a8ec     ssh.obj
 0002:000048fc       ??_C@_0CP@IIGJGMPJ@We?5believe?5remote?5version?5has?5SS@ 0044a8fc     ssh.obj
 0002:0000492c       ??_C@_0DH@CMIOCIAN@We?5believe?5remote?5version?5needs?5@ 0044a92c     ssh.obj
 0002:00004968       ??_C@_0EA@EJBFMCDE@We?5believe?5remote?5version?5can?8t?5@ 0044a968     ssh.obj
 0002:000049a8       ??_C@_08BAHPAKLM@?$CK?5VShell?$AA@ 0044a9a8     ssh.obj
 0002:000049b4       ??_C@_06PHGFJADP@2?41?40?$CK?$AA@ 0044a9b4     ssh.obj
 0002:000049bc       ??_C@_05NEONDGPM@2?40?4?$CK?$AA@ 0044a9bc     ssh.obj
 0002:000049c4       ??_C@_06LAMFOKOP@2?42?40?$CK?$AA@ 0044a9c4     ssh.obj
 0002:000049cc       ??_C@_06INKFMDFP@2?43?40?$CK?$AA@ 0044a9cc     ssh.obj
 0002:000049d4       ??_C@_05GGMPHMJD@2?41?5?$CK?$AA@ 0044a9d4     ssh.obj
 0002:000049dc       ??_C@_0CN@JIMODAEB@We?5believe?5remote?5version?5has?5SS@ 0044a9dc     ssh.obj
 0002:00004a0c       ??_C@_06MKAFLJIP@2?40?40?$CK?$AA@ 0044aa0c     ssh.obj
 0002:00004a14       ??_C@_07LLKLBGOD@2?40?410?$CK?$AA@ 0044aa14     ssh.obj
 0002:00004a1c       ??_C@_0DH@HJJPBCPI@We?5believe?5remote?5version?5has?5SS@ 0044aa1c     ssh.obj
 0002:00004a54       ??_C@_0BB@LJFPKCKB@OpenSSH_2?4?$FL5?99?$FN?$CK?$AA@ 0044aa54     ssh.obj
 0002:00004a68       ??_C@_0BB@CJOIKAFA@OpenSSH_3?4?$FL0?92?$FN?$CK?$AA@ 0044aa68     ssh.obj
 0002:00004a7c       ??_C@_0DE@LNKHENAK@We?5believe?5remote?5version?5has?5SS@ 0044aa7c     ssh.obj
 0002:00004ab0       ??_C@_0BB@DOJDLEBD@OpenSSH_2?4?$FL0?92?$FN?$CK?$AA@ 0044aab0     ssh.obj
 0002:00004ac4       ??_C@_0DO@GCGLALIG@We?5believe?5remote?5version?5has?5SS@ 0044aac4     ssh.obj
 0002:00004b04       ??_C@_0M@HIEGIPHD@DigiSSH_2?40?$AA@ 0044ab04     ssh.obj
 0002:00004b10       ??_C@_0BB@BLPIOLMP@OpenSSH_2?4?$FL0?94?$FN?$CK?$AA@ 0044ab10     ssh.obj
 0002:00004b24       ??_C@_0BD@ENMPLMLA@OpenSSH_2?45?4?$FL0?93?$FN?$CK?$AA@ 0044ab24     ssh.obj
 0002:00004b38       ??_C@_0M@BHKBOAHA@Sun_SSH_1?40?$AA@ 0044ab38     ssh.obj
 0002:00004b44       ??_C@_0O@HLLLOAHH@Sun_SSH_1?40?41?$AA@ 0044ab44     ssh.obj
 0002:00004b54       ??_C@_0L@MHIKENAA@WeOnlyDo?9?$CK?$AA@ 0044ab54     ssh.obj
 0002:00004b60       ??_C@_0CO@HCACEIAK@We?5believe?5remote?5version?5has?5SS@ 0044ab60     ssh.obj
 0002:00004b90       ??_C@_0BI@HKLJHCEN@1?436_sshlib?5GlobalSCAPE?$AA@ 0044ab90     ssh.obj
 0002:00004ba8       ??_C@_0BJ@JILMHMAP@1?436?5sshlib?3?5GlobalScape?$AA@ 0044aba8     ssh.obj
 0002:00004bc4       ??_C@_0DM@GNJJCIDH@We?5believe?5remote?5version?5ignore@ 0044abc4     ssh.obj
 0002:00004c00       ??_C@_0CP@DFKDAADH@We?5believe?5remote?5version?5has?5SS@ 0044ac00     ssh.obj
 0002:00004c30       ??_C@_0CJ@IAPGOFOG@We?5believe?5remote?5version?5has?5wi@ 0044ac30     ssh.obj
 0002:00004c5c       ??_C@_1BI@LMJHNPIC@?$AA?$CK?$AAs?$AAt?$AAr?$AA?5?$AA?$DN?$AA?$DN?$AA?5?$AA?8?$AAS?$AA?8?$AA?$AA@ 0044ac5c     ssh.obj
 0002:00004c74       ??_C@_1BI@NFIGCNNK@?$AA?$CK?$AAs?$AAt?$AAr?$AA?5?$AA?$DN?$AA?$DN?$AA?5?$AA?8?$AAH?$AA?8?$AA?$AA@ 0044ac74     ssh.obj
 0002:00004c8c       ??_C@_1BI@INLPLDDD@?$AA?$CK?$AAs?$AAt?$AAr?$AA?5?$AA?$DN?$AA?$DN?$AA?5?$AA?8?$AA?9?$AA?8?$AA?$AA@ 0044ac8c     ssh.obj
 0002:00004ca4       ??_C@_0N@KEPAOFKB@SSH?92?40?9?$CFs?$AN?6?$AA@ 0044aca4     ssh.obj
 0002:00004cb4       ??_C@_0L@DCOIPNIL@SSH?9?$CFs?9?$CFs?6?$AA@ 0044acb4     ssh.obj
 0002:00004cc0       ??_C@_0BH@HOBANDOK@We?5claim?5version?3?5?$CF?4?$CKs?$AA@ 0044acc0     ssh.obj
 0002:00004cd8       ??_C@_04MBHFJLCC@SSH?9?$AA@ 0044acd8     ssh.obj
 0002:00004ce0       ??_C@_0BD@OJGHBNK@Server?5version?3?5?$CFs?$AA@ 0044ace0     ssh.obj
 0002:00004cf4       ??_C@_03GJAMENNA@2?40?$AA@ 0044acf4     ssh.obj
 0002:00004cf8       ??_C@_04MAEPBCHM@1?499?$AA@ 0044acf8     ssh.obj
 0002:00004d00       ??_C@_0ED@LNDDPKEH@SSH?5protocol?5version?51?5required?5@ 0044ad00     ssh.obj
 0002:00004d48       ??_C@_0ED@DNGJFGPC@SSH?5protocol?5version?52?5required?5@ 0044ad48     ssh.obj
 0002:00004d8c       ??_C@_0BO@KOCNICNE@Using?5SSH?5protocol?5version?5?$CFd?$AA@ 0044ad8c     ssh.obj
 0002:00004dac       ??_C@_0BJ@PAKDEFEF@Connecting?5to?5?$CFs?5port?5?$CFd?$AA@ 0044adac     ssh.obj
 0002:00004dc8       ??_C@_0BM@ECNDNCEG@Failed?5to?5connect?5to?5?$CFs?3?5?$CFs?$AA@ 0044adc8     ssh.obj
 0002:00004de4       ??_C@_0CO@ONHJPIC@Server?5unexpectedly?5closed?5netwo@ 0044ade4     ssh.obj
 0002:00004e14       ??_C@_0CB@PNLNMAGO@Server?5closed?5network?5connection@ 0044ae14     ssh.obj
 0002:00004e38       ??_C@_07KGMNIMLD@?5?$CIIPv4?$CJ?$AA@ 0044ae38     ssh.obj
 0002:00004e40       ??_C@_07KFEJFINN@?5?$CIIPv6?$CJ?$AA@ 0044ae40     ssh.obj
 0002:00004e48       ??_C@_0BH@GCHBENDH@Looking?5up?5host?5?$CC?$CFs?$CC?$CFs?$AA@ 0044ae48     ssh.obj
 0002:00004e60       ??_C@_1DM@ICDCJA@?$AAs?$AAs?$AAh?$AA?9?$AA?$DO?$AAc?$AAo?$AAn?$AAn?$AA_?$AAt?$AAh?$AAr?$AAo?$AAt?$AAt?$AAl?$AAe?$AA_?$AAc?$AAo?$AAu?$AAn?$AAt?$AA?5?$AA?$DO?$AA?$DN?$AA?5?$AA0?$AA?$AA@ 0044ae60     ssh.obj
 0002:00004e9c       ??_C@_05DCIIMACO@?$AA?$AA?$AA?$AB?$AF?$AA@ 0044ae9c     ssh.obj
 0002:00004ea4       ??_C@_0BB@LAFNLKFC@Disconnected?3?5?$CFs?$AA@ 0044aea4     ssh.obj
 0002:00004eb8       ??_C@_0N@NFBNFHML@Disconnected?$AA@ 0044aeb8     ssh.obj
 0002:00004ec8       ??_C@_02LFNMGJAP@en?$AA@   0044aec8     ssh.obj
 0002:00004ecc       ??_C@_0BP@IGKLADLI@Public?5key?5packet?5not?5received?$AA@ 0044aecc     ssh.obj
 0002:00004eec       ??_C@_0BF@OIEJEBFE@Received?5public?5keys?$AA@ 0044aeec     ssh.obj
 0002:00004f04       ??_C@_0DF@JDDHBAMG@SSH?91?5public?5key?5packet?5stopped?5@ 0044af04     ssh.obj
 0002:00004f3c       ??_C@_0DI@NFFCIGFE@Failed?5to?5read?5SSH?91?5public?5keys@ 0044af3c     ssh.obj
 0002:00004f74       ??_C@_0BJ@JJNAKBGD@Host?5key?5fingerprint?5is?3?$AA@ 0044af74     ssh.obj
 0002:00004f90       ??_C@_06GGLIPOFD@?5?5?5?5?5?5?$AA@ 0044af90     ssh.obj
 0002:00004f98       ??_C@_0CH@IHLPIDPD@SSH?91?5public?5keys?5were?5badly?5for@ 0044af98     ssh.obj
 0002:00004fc0       ??_C@_0EF@JPALKFON@Unexpected?5data?5from?5server?5whil@ 0044afc0     ssh.obj
 0002:00005008       ??_C@_0CG@EHHEHPCC@User?5aborted?5at?5host?5key?5verific@ 0044b008     ssh.obj
 0002:00005030       ??_C@_0DK@PACBCMIN@SSH?91?5public?5key?5encryptions?5fai@ 0044b030     ssh.obj
 0002:0000506c       ??_C@_0BG@FILKDMEH@Encrypted?5session?5key?$AA@ 0044b06c     ssh.obj
 0002:00005084       ??_C@_0CF@HHJELONP@AES?5not?5supported?5in?5SSH?91?0?5skip@ 0044b084     ssh.obj
 0002:000050ac       ??_C@_04CMONEEGC@3DES?$AA@ 0044b0ac     ssh.obj
 0002:000050b4       ??_C@_08KOMAHJJD@Blowfish?$AA@ 0044b0b4     ssh.obj
 0002:000050c0       ??_C@_0L@EOAKHLNE@single?9DES?$AA@ 0044b0c0     ssh.obj
 0002:000050d0       ??_C@_0EB@CHIJKDPJ@Server?5violates?5SSH?91?5protocol?5b@ 0044b0d0     ssh.obj
 0002:00005114       ??_C@_0BL@PIIHPKCJ@No?5supported?5ciphers?5found?$AA@ 0044b114     ssh.obj
 0002:00005130       ??_C@_06KDGDAFPH@cipher?$AA@ 0044b130     ssh.obj
 0002:00005138       ??_C@_0DM@ICPAMLAB@Unexpected?5data?5from?5server?5whil@ 0044b138     ssh.obj
 0002:00005174       ??_C@_0BP@GEALDMIJ@User?5aborted?5at?5cipher?5warning?$AA@ 0044b174     ssh.obj
 0002:00005194       ??_C@_0BG@DIGLDGJI@Using?53DES?5encryption?$AA@ 0044b194     ssh.obj
 0002:000051ac       ??_C@_0BM@BBOEIGCF@Using?5single?9DES?5encryption?$AA@ 0044b1ac     ssh.obj
 0002:000051c8       ??_C@_0BK@EIKCDDM@Using?5Blowfish?5encryption?$AA@ 0044b1c8     ssh.obj
 0002:000051e4       ??_C@_0BP@LBBLLFBK@Trying?5to?5enable?5encryption?4?4?4?$AA@ 0044b1e4     ssh.obj
 0002:00005204       ??_C@_0BK@MMAMGDDL@Initialised?5?$CFs?5encryption?$AA@ 0044b204     ssh.obj
 0002:00005220       ??_C@_0CM@FFPEEOPN@Installing?5CRC?5compensation?5atta@ 0044b220     ssh.obj
 0002:0000524c       ??_C@_0CE@FJPBFBDG@Encryption?5not?5successfully?5enab@ 0044b24c     ssh.obj
 0002:00005270       ??_C@_0CA@JFEIDIEE@Successfully?5started?5encryption?$AA@ 0044b270     ssh.obj
 0002:00005290       ??_C@_0P@LPKBKFIB@SSH?5login?5name?$AA@ 0044b290     ssh.obj
 0002:000052a0       ??_C@_0L@KEHJGFAJ@login?5as?3?5?$AA@ 0044b2a0     ssh.obj
 0002:000052ac       ??_C@_0BF@IGAMAODP@No?5username?5provided?$AA@ 0044b2ac     ssh.obj
 0002:000052c4       ??_C@_0BD@NJNGFMAH@Sent?5username?5?$CC?$CFs?$CC?$AA@ 0044b2c4     ssh.obj
 0002:000052d8       ??_C@_0CC@JPMHOGNA@Reading?5private?5key?5file?5?$CC?$CF?4150s@ 0044b2d8     ssh.obj
 0002:000052fc       ??_C@_0CA@HKJLNFOC@Unable?5to?5load?5private?5key?5?$CI?$CFs?$CJ?$AA@ 0044b2fc     ssh.obj
 0002:0000531c       ??_C@_0DA@DFDIOCO@Unable?5to?5load?5private?5key?5file?5@ 0044b31c     ssh.obj
 0002:0000534c       ??_C@_0CB@DPBNKMOI@Unable?5to?5use?5this?5key?5file?5?$CI?$CFs?$CJ@ 0044b34c     ssh.obj
 0002:00005370       ??_C@_0CH@FFFFGOPO@Unable?5to?5use?5key?5file?5?$CC?$CF?4150s?$CC?5@ 0044b370     ssh.obj
 0002:00005398       ??_C@_0CF@IBMJOGJN@Pageant?5is?5running?4?5Requesting?5k@ 0044b398     ssh.obj
 0002:000053c0       ??_C@_0DN@JEDOIKLN@Unexpected?5data?5from?5server?5whil@ 0044b3c0     ssh.obj
 0002:00005400       ??_C@_0BK@ECGNFPIC@Pageant?5has?5?$CFd?5SSH?91?5keys?$AA@ 0044b400     ssh.obj
 0002:0000541c       ??_C@_0CG@OCNDCPM@Pageant?5key?5list?5packet?5was?5trun@ 0044b41c     ssh.obj
 0002:00005444       ??_C@_0CM@BFAHCAOE@Pageant?5key?5?$CD?$CFd?5matches?5configur@ 0044b444     ssh.obj
 0002:00005470       ??_C@_0BH@OPACOADI@Trying?5Pageant?5key?5?$CD?$CFd?$AA@ 0044b470     ssh.obj
 0002:00005488       ??_C@_0M@ICJGOCKI@Key?5refused?$AA@ 0044b488     ssh.obj
 0002:00005494       ??_C@_0BH@JDPJLPMF@Received?5RSA?5challenge?$AA@ 0044b494     ssh.obj
 0002:000054ac       ??_C@_0CL@IOPHBKK@Server?8s?5RSA?5challenge?5was?5badly@ 0044b4ac     ssh.obj
 0002:000054d8       ??_C@_0BL@ODHDGAK@Sending?5Pageant?8s?5response?$AA@ 0044b4d8     ssh.obj
 0002:000054f4       ??_C@_0BM@OOOCBPA@Pageant?8s?5response?5accepted?$AA@ 0044b4f4     ssh.obj
 0002:00005510       ??_C@_0BO@ICAFIJOA@Authenticated?5using?5RSA?5key?5?$CC?$AA@ 0044b510     ssh.obj
 0002:00005530       ??_C@_0P@PMKJLHCD@?$CC?5from?5agent?$AN?6?$AA@ 0044b530     ssh.obj
 0002:00005540       ??_C@_0CA@HCMDLEPO@Pageant?8s?5response?5not?5accepted?$AA@ 0044b540     ssh.obj
 0002:00005560       ??_C@_0CD@FAHGKLDL@Pageant?5failed?5to?5answer?5challen@ 0044b560     ssh.obj
 0002:00005584       ??_C@_0BP@CCFNIMAJ@No?5reply?5received?5from?5Pageant?$AA@ 0044b584     ssh.obj
 0002:000055a4       ??_C@_0CD@CDGGMNPN@Configured?5key?5file?5not?5in?5Pagea@ 0044b5a4     ssh.obj
 0002:000055c8       ??_C@_0CB@BBHJNDBI@Failed?5to?5get?5reply?5from?5Pageant@ 0044b5c8     ssh.obj
 0002:000055ec       ??_C@_0CE@IEHJDBPN@Trying?5public?5key?5authentication@ 0044b5ec     ssh.obj
 0002:00005610       ??_C@_0BH@BLHJIOHH@Trying?5public?5key?5?$CC?$CFs?$CC?$AA@ 0044b610     ssh.obj
 0002:00005628       ??_C@_0BK@PCDHHOPE@No?5passphrase?5required?4?$AN?6?$AA@ 0044b628     ssh.obj
 0002:00005644       ??_C@_0BD@NGECALDL@SSH?5key?5passphrase?$AA@ 0044b644     ssh.obj
 0002:00005658       ??_C@_0BO@MGNPEKIO@Passphrase?5for?5key?5?$CC?$CF?4100s?$CC?3?5?$AA@ 0044b658     ssh.obj
 0002:00005678       ??_C@_0BH@OFLEDBJL@Unable?5to?5authenticate?$AA@ 0044b678     ssh.obj
 0002:00005690       ??_C@_0CA@ECDIGNAG@Couldn?8t?5load?5private?5key?5from?5?$AA@ 0044b690     ssh.obj
 0002:000056b0       ??_C@_02GFKOMOKH@?5?$CI?$AA@ 0044b6b0     ssh.obj
 0002:000056b4       ??_C@_04EHNGOGED@?$CJ?4?$AN?6?$AA@ 0044b6b4     ssh.obj
 0002:000056bc       ??_C@_0BE@BGMEGCKP@Wrong?5passphrase?4?$AN?6?$AA@ 0044b6bc     ssh.obj
 0002:000056d0       ??_C@_1FG@NDFPAKBP@?$AA0?$AA?5?$AA?$CG?$AA?$CG?$AA?5?$AA?$CC?$AAu?$AAn?$AAe?$AAx?$AAp?$AAe?$AAc?$AAt?$AAe?$AAd?$AA?5?$AAr?$AAe?$AAt?$AAu?$AAr?$AAn?$AA?5?$AAf?$AAr?$AAo?$AAm?$AA?5?$AAl?$AAo?$AAa@ 0044b6d0     ssh.obj
 0002:00005728       ??_C@_0CB@CLLCFHG@Server?5refused?5our?5public?5key?4?$AN?6@ 0044b728     ssh.obj
 0002:0000574c       ??_C@_0CI@MHDHOLHG@Bizarre?5response?5to?5offer?5of?5pub@ 0044b74c     ssh.obj
 0002:00005774       ??_C@_0CO@LGDBEPGH@Failed?5to?5authenticate?5with?5our?5@ 0044b774     ssh.obj
 0002:000057a4       ??_C@_0DA@NDKONBBD@Bizarre?5response?5to?5RSA?5authenti@ 0044b7a4     ssh.obj
 0002:000057d4       ??_C@_0BN@GPBLAKNN@Requested?5TIS?5authentication?$AA@ 0044b7d4     ssh.obj
 0002:000057f4       ??_C@_0BM@OJKDEMHM@TIS?5authentication?5declined?$AA@ 0044b7f4     ssh.obj
 0002:00005810       ??_C@_0BO@BFHGKFG@TIS?5authentication?5refused?4?$AN?6?$AA@ 0044b810     ssh.obj
 0002:00005830       ??_C@_0CG@HNFFOLPD@TIS?5challenge?5packet?5was?5badly?5f@ 0044b830     ssh.obj
 0002:00005858       ??_C@_0BH@FEAEHOM@Received?5TIS?5challenge?$AA@ 0044b858     ssh.obj
 0002:00005870       ??_C@_0BH@FDBBBFIP@SSH?5TIS?5authentication?$AA@ 0044b870     ssh.obj
 0002:00005888       ??_C@_0L@KHOIAAKO@Response?3?5?$AA@ 0044b888     ssh.obj
 0002:00005894       ??_C@_0BO@HHINHHC@Using?5TIS?5authentication?4?$CFs?$CFs?$AA@ 0044b894     ssh.obj
 0002:000058b4       ??_C@_0CE@EIJKKNAA@Requested?5CryptoCard?5authenticat@ 0044b8b4     ssh.obj
 0002:000058d8       ??_C@_0CD@OINBDJMD@CryptoCard?5authentication?5declin@ 0044b8d8     ssh.obj
 0002:000058fc       ??_C@_0CF@ECGFFMOA@CryptoCard?5authentication?5refuse@ 0044b8fc     ssh.obj
 0002:00005924       ??_C@_0CN@PAJOCAIE@CryptoCard?5challenge?5packet?5was?5@ 0044b924     ssh.obj
 0002:00005954       ??_C@_0BO@JIIBOJDP@Received?5CryptoCard?5challenge?$AA@ 0044b954     ssh.obj
 0002:00005974       ??_C@_0BO@POBNLKGI@SSH?5CryptoCard?5authentication?$AA@ 0044b974     ssh.obj
 0002:00005994       ??_C@_0CF@JCLNJCJI@Using?5CryptoCard?5authentication?4@ 0044b994     ssh.obj
 0002:000059bc       ??_C@_0CO@HODBELPK@No?5supported?5authentication?5meth@ 0044b9bc     ssh.obj
 0002:000059ec       ??_C@_0N@OOHPIOHK@SSH?5password?$AA@ 0044b9ec     ssh.obj
 0002:000059fc       ??_C@_0BD@POAFHOBP@?$CFs?$EA?$CFs?8s?5password?3?5?$AA@ 0044b9fc     ssh.obj
 0002:00005a10       ??_C@_1EA@LDCCOPO@?$AAp?$AAw?$AAl?$AAe?$AAn?$AA?5?$AA?$DO?$AA?$DN?$AA?5?$AAb?$AAo?$AAt?$AAt?$AAo?$AAm?$AA?5?$AA?$CG?$AA?$CG?$AA?5?$AAp?$AAw?$AAl?$AAe?$AAn?$AA?5?$AA?$DM?$AA?$DN?$AA?5?$AAt?$AAo?$AAp?$AA?$AA@ 0044ba10     ssh.obj
 0002:00005a50       ??_C@_0CJ@IMGIIIOC@Sending?5password?5with?5camouflage@ 0044ba50     ssh.obj
 0002:00005a7c       ??_C@_0BP@LFCLHOKO@Sending?5length?9padded?5password?$AA@ 0044ba7c     ssh.obj
 0002:00005a9c       ??_C@_0BK@CNMFNDPA@Sending?5unpadded?5password?$AA@ 0044ba9c     ssh.obj
 0002:00005ab8       ??_C@_0O@GELAIDLK@Sent?5password?$AA@ 0044bab8     ssh.obj
 0002:00005ac8       ??_C@_0BA@CCGPKPCP@Access?5denied?$AN?6?$AA@ 0044bac8     ssh.obj
 0002:00005ad8       ??_C@_0BH@IOHDNACM@Authentication?5refused?$AA@ 0044bad8     ssh.obj
 0002:00005af0       ??_C@_0CB@GEAKHDKI@Strange?5packet?5received?0?5type?5?$CFd@ 0044baf0     ssh.obj
 0002:00005b14       ??_C@_0BK@OJHOFMHH@Authentication?5successful?$AA@ 0044bb14     ssh.obj
 0002:00005b30       ??_C@_1BO@INKKBANN@?$AAc?$AA?9?$AA?$DO?$AAp?$AAe?$AAn?$AAd?$AAi?$AAn?$AAg?$AA_?$AAe?$AAo?$AAf?$AA?$AA@ 0044bb30     ssh.obj
 0002:00005b50       ??_C@_0DH@BMKANOCK@Forwarded?5X11?5connection?5termina@ 0044bb50     ssh.obj
 0002:00005b88       ??_C@_0CJ@CECLBLMC@Forwarded?5port?5closed?5due?5to?5loc@ 0044bb88     ssh.obj
 0002:00005bb4       ??_C@_1BG@MNOGKNNN@?$AAq?$AAh?$AA?5?$AA?$CB?$AA?$DN?$AA?5?$AAN?$AAU?$AAL?$AAL?$AA?$AA@ 0044bbb4     ssh.obj
 0002:00005bd0       ??_C@_1GG@MJMHMHOD@?$AAp?$AAk?$AAt?$AAi?$AAn?$AA?9?$AA?$DO?$AAt?$AAy?$AAp?$AAe?$AA?5?$AA?$DN?$AA?$DN?$AA?5?$AAq?$AAh?$AA?9?$AA?$DO?$AAm?$AAs?$AAg?$AA1?$AA?5?$AA?$HM?$AA?$HM?$AA?5?$AAp?$AAk?$AAt?$AAi?$AAn@ 0044bbd0     ssh.obj
 0002:00005c38       ??_C@_1GO@CFOIEBOE@?$AAs?$AAs?$AAh?$AA?9?$AA?$DO?$AAp?$AAa?$AAc?$AAk?$AAe?$AAt?$AA_?$AAd?$AAi?$AAs?$AAp?$AAa?$AAt?$AAc?$AAh?$AA?$FL?$AAq?$AAh?$AA?9?$AA?$DO?$AAm?$AAs?$AAg?$AA1?$AA?$FN?$AA?5?$AA?$DN@ 0044bc38     ssh.obj
 0002:00005ca8       ??_C@_1GO@CHAGLLDO@?$AAs?$AAs?$AAh?$AA?9?$AA?$DO?$AAp?$AAa?$AAc?$AAk?$AAe?$AAt?$AA_?$AAd?$AAi?$AAs?$AAp?$AAa?$AAt?$AAc?$AAh?$AA?$FL?$AAq?$AAh?$AA?9?$AA?$DO?$AAm?$AAs?$AAg?$AA2?$AA?$FN?$AA?5?$AA?$DN@ 0044bca8     ssh.obj
 0002:00005d18       ??_C@_0CH@OIAECCL@Remote?5port?5forwarding?5from?5?$CFs?5e@ 0044bd18     ssh.obj
 0002:00005d40       ??_C@_0CH@LNEGBCAA@Remote?5port?5forwarding?5from?5?$CFs?5r@ 0044bd40     ssh.obj
 0002:00005d68       ??_C@_1BE@GAGILIBP@?$AAr?$AAp?$AAf?$AA?5?$AA?$DN?$AA?$DN?$AA?5?$AAp?$AAf?$AA?$AA@ 0044bd68     ssh.obj
 0002:00005d7c       ??_C@_0CL@OAHHEDDM@Service?5lookup?5failed?5for?5source@ 0044bd7c     ssh.obj
 0002:00005da8       ??_C@_0DA@BGECCLDL@Service?5lookup?5failed?5for?5destin@ 0044bda8     ssh.obj
 0002:00005dd8       ??_C@_05IDKHKMLA@local?$AA@ 0044bdd8     ssh.obj
 0002:00005de0       ??_C@_06IMIHEKN@remote?$AA@ 0044bde0     ssh.obj
 0002:00005de8       ??_C@_07OBLKMMON@dynamic?$AA@ 0044bde8     ssh.obj
 0002:00005df0       ??_C@_0BP@OOEDKOCL@?$CFs?5port?5forwarding?5from?5?$CFs?$CFs?$CFd?$AA@ 0044bdf0     ssh.obj
 0002:00005e10       ??_C@_0M@OIOIHPP@?$CFs?5to?5?$CFs?3?$CFd?$AA@ 0044be10     ssh.obj
 0002:00005e1c       ??_C@_0O@FPBFNNNH@Cancelling?5?$CFs?$AA@ 0044be1c     ssh.obj
 0002:00005e2c       ??_C@_0BF@KDCOPBH@cancel?9tcpip?9forward?$AA@ 0044be2c     ssh.obj
 0002:00005e44       ??_C@_09IPAEKDAI@localhost?$AA@ 0044be44     ssh.obj
 0002:00005e50       ??_C@_01PKGAHCOL@?$CJ?$AA@ 0044be50     ssh.obj
 0002:00005e54       ??_C@_01ODHLEDKK@?$CI?$AA@ 0044be54     ssh.obj
 0002:00005e58       ??_C@_0N@JKMAFJEE@?$CFs?$CFs?$CFs?$CFs?$CFd?$CFs?$AA@ 0044be58     ssh.obj
 0002:00005e68       ??_C@_0M@GBNCOFKO@?$CFs?3?$CFs?$CFs?$CFd?$CFs?$AA@ 0044be68     ssh.obj
 0002:00005e74       ??_C@_09FIOGNGMI@?5failed?3?5?$AA@ 0044be74     ssh.obj
 0002:00005e80       ??_C@_05KGMLFMJN@IPv4?5?$AA@ 0044be80     ssh.obj
 0002:00005e88       ??_C@_05KFEPIIPD@IPv6?5?$AA@ 0044be88     ssh.obj
 0002:00005e90       ??_C@_0CF@NHJAMJBJ@Local?5?$CFsport?5?$CFs?5forwarding?5to?5?$CFs@ 0044be90     ssh.obj
 0002:00005eb8       ??_C@_0CN@FMCCPJAP@Local?5?$CFsport?5?$CFs?5SOCKS?5dynamic?5fo@ 0044beb8     ssh.obj
 0002:00005ee8       ??_C@_0CK@DGMHOJIG@Duplicate?5remote?5port?5forwarding@ 0044bee8     ssh.obj
 0002:00005f14       ??_C@_0CI@LPFOCNO@Requesting?5remote?5port?5?$CFs?5forwar@ 0044bf14     ssh.obj
 0002:00005f3c       ??_C@_0O@FHIGECAN@tcpip?9forward?$AA@ 0044bf3c     ssh.obj
 0002:00005f4c       ??_C@_0CP@JHDIKLMG@Incoming?5terminal?5data?5packet?5wa@ 0044bf4c     ssh.obj
 0002:00005f7c       ??_C@_0BN@ELMGOBAG@Received?5X11?5connect?5request?$AA@ 0044bf7c     ssh.obj
 0002:00005f9c       ??_C@_0BN@ICJOFFCI@Rejected?5X11?5connect?5request?$AA@ 0044bf9c     ssh.obj
 0002:00005fbc       ??_C@_0CG@CMOPBJOC@Opening?5X11?5forward?5connection?5f@ 0044bfbc     ssh.obj
 0002:00005fe4       ??_C@_0CJ@JAFJIJGP@Opening?5X11?5forward?5connection?5s@ 0044bfe4     ssh.obj
 0002:00006010       ??_C@_0BL@PENAMJAF@Opened?5X11?5forward?5channel?$AA@ 0044c010     ssh.obj
 0002:0000602c       ??_C@_0CM@ILAFDJEP@Rejected?5remote?5port?5open?5reques@ 0044c02c     ssh.obj
 0002:00006058       ??_C@_0CM@EBDODNHE@Received?5remote?5port?5open?5reques@ 0044c058     ssh.obj
 0002:00006084       ??_C@_0BF@CNMNNBHC@Port?5open?5failed?3?5?$CFs?$AA@ 0044c084     ssh.obj
 0002:0000609c       ??_C@_0CD@DHNJHFLP@Forwarded?5port?5opened?5successful@ 0044c09c     ssh.obj
 0002:000060c0       ??_C@_0CH@OEPGDDBK@Forwarded?5connection?5refused?5by?5@ 0044c0c0     ssh.obj
 0002:000060e8       ??_C@_0FK@JIAFDJGM@Received?5CHANNEL_CLOSE_CONFIRMAT@ 0044c0e8     ssh.obj
 0002:00006144       ??_C@_09IEHCJDML@half?9open?$AA@ 0044c144     ssh.obj
 0002:00006150       ??_C@_0M@LKCCPDMK@nonexistent?$AA@ 0044c150     ssh.obj
 0002:0000615c       ??_C@_0O@LAKIDDOE@_CONFIRMATION?$AA@ 0044c15c     ssh.obj
 0002:0000616c       ??_C@_0CM@LFMHACBB@Received?5CHANNEL_CLOSE?$CFs?5for?5?$CFs?5@ 0044c16c     ssh.obj
 0002:00006198       ??_C@_0CD@DDJGPENM@Server?5sent?5command?5exit?5status?5@ 0044c198     ssh.obj
 0002:000061bc       ??_C@_0BM@NJEJEKAO@Requesting?5agent?5forwarding?$AA@ 0044c1bc     ssh.obj
 0002:000061d8       ??_C@_0BD@OCDHEGAF@Protocol?5confusion?$AA@ 0044c1d8     ssh.obj
 0002:000061ec       ??_C@_0BJ@HHKCGNIF@Agent?5forwarding?5refused?$AA@ 0044c1ec     ssh.obj
 0002:00006208       ??_C@_0BJ@MEGEDNKO@Agent?5forwarding?5enabled?$AA@ 0044c208     ssh.obj
 0002:00006224       ??_C@_0BK@GNAPPHHA@Requesting?5X11?5forwarding?$AA@ 0044c224     ssh.obj
 0002:00006240       ??_C@_0BH@EFJJEGKG@X11?5forwarding?5refused?$AA@ 0044c240     ssh.obj
 0002:00006258       ??_C@_0BH@PGFPBGIN@X11?5forwarding?5enabled?$AA@ 0044c258     ssh.obj
 0002:00006270       ??_C@_05KABNCBHK@?$CFd?0?$CFd?$AA@ 0044c270     ssh.obj
 0002:00006278       ??_C@_0CB@LLJPBHCJ@Server?5refused?5to?5allocate?5pty?$AN?6@ 0044c278     ssh.obj
 0002:0000629c       ??_C@_0CL@IIGHBBGD@Allocated?5pty?5?$CIospeed?5?$CFdbps?0?5isp@ 0044c29c     ssh.obj
 0002:000062c8       ??_C@_0BN@KMIOBKOG@Server?5refused?5to?5compress?$AN?6?$AA@ 0044c2c8     ssh.obj
 0002:000062e8       ??_C@_0BE@ENFFBDBK@Started?5compression?$AA@ 0044c2e8     ssh.obj
 0002:000062fc       ??_C@_0CH@BDMLBKJD@Initialised?5zlib?5?$CIRFC1950?$CJ?5compr@ 0044c2fc     ssh.obj
 0002:00006324       ??_C@_0CJ@PGIKMBFP@Initialised?5zlib?5?$CIRFC1950?$CJ?5decom@ 0044c324     ssh.obj
 0002:00006350       ??_C@_0BA@NPPDBEMH@Started?5session?$AA@ 0044c350     ssh.obj
 0002:00006360       ??_C@_0CB@EOLKICAH@Strange?5packet?5received?3?5type?5?$CFd@ 0044c360     ssh.obj
 0002:00006384       ??_C@_0BL@GDJDMKLI@Remote?5debug?5message?3?5?$CF?4?$CKs?$AA@ 0044c384     ssh.obj
 0002:000063a0       ??_C@_0CH@KNCMNEDA@Server?5sent?5disconnect?5message?3?6@ 0044c3a0     ssh.obj
 0002:000063c8       ??_C@_0CJ@PODLBBFK@expected?5key?5exchange?5packet?5fro@ 0044c3c8     ssh.obj
 0002:000063f4       ??_C@_06OJHGLDPL@?$CInull?$CJ?$AA@ 0044c3f4     ssh.obj
 0002:000063fc       ??_C@_0DI@PAGBINBB@Couldn?8t?5agree?5a?5key?5exchange?5al@ 0044c3fc     ssh.obj
 0002:00006434       ??_C@_0DE@IIDHACGC@Couldn?8t?5agree?5a?5host?5key?5algori@ 0044c434     ssh.obj
 0002:00006468       ??_C@_0DJ@OCBAHKHA@Couldn?8t?5agree?5a?5client?9to?9serve@ 0044c468     ssh.obj
 0002:000064a4       ??_C@_0DJ@GGAIMLKB@Couldn?8t?5agree?5a?5server?9to?9clien@ 0044c4a4     ssh.obj
 0002:000064e0       ??_C@_0DJ@ELCJMNAN@Server?5supports?5delayed?5compress@ 0044c4e0     ssh.obj
 0002:0000651c       ??_C@_0BH@FAOAOCLD@key?9exchange?5algorithm?$AA@ 0044c51c     ssh.obj
 0002:00006534       ??_C@_0BM@HINOKHAL@User?5aborted?5at?5kex?5warning?$AA@ 0044c534     ssh.obj
 0002:00006550       ??_C@_0BI@IOBCEHEE@client?9to?9server?5cipher?$AA@ 0044c550     ssh.obj
 0002:00006568       ??_C@_0BI@PMGIAPCP@server?9to?9client?5cipher?$AA@ 0044c568     ssh.obj
 0002:00006580       ??_C@_0CE@JHGGCMEI@Doing?5Diffie?9Hellman?5group?5excha@ 0044c580     ssh.obj
 0002:000065a4       ??_C@_0CP@EDLLCMOC@expected?5key?5exchange?5group?5pack@ 0044c5a4     ssh.obj
 0002:000065d4       ??_C@_0DC@CBOLCPFB@unable?5to?5read?5mp?9ints?5from?5inco@ 0044c5d4     ssh.obj
 0002:00006608       ??_C@_0CO@JNBMOJPG@Using?5Diffie?9Hellman?5with?5standa@ 0044c608     ssh.obj
 0002:00006638       ??_C@_0CP@JBPDNILH@Doing?5Diffie?9Hellman?5key?5exchang@ 0044c638     ssh.obj
 0002:00006668       ??_C@_0CP@MBCPEGJO@expected?5key?5exchange?5reply?5pack@ 0044c668     ssh.obj
 0002:00006698       ??_C@_0CK@JCPJLOJP@unable?5to?5parse?5key?5exchange?5rep@ 0044c698     ssh.obj
 0002:000066c4       ??_C@_0CE@CLLBJDCD@Doing?5RSA?5key?5exchange?5with?5hash@ 0044c6c4     ssh.obj
 0002:000066e8       ??_C@_0CL@DAELABLA@expected?5RSA?5public?5key?5packet?5f@ 0044c6e8     ssh.obj
 0002:00006714       ??_C@_0CL@LOIHOOFE@unable?5to?5parse?5RSA?5public?5key?5f@ 0044c714     ssh.obj
 0002:00006740       ??_C@_0CG@ILJJDEIP@expected?5signature?5packet?5from?5s@ 0044c740     ssh.obj
 0002:00006768       ??_C@_1GC@PBIDLHHL@?$AAs?$AAs?$AAh?$AA?9?$AA?$DO?$AAk?$AAe?$AAx?$AA?9?$AA?$DO?$AAh?$AAa?$AAs?$AAh?$AA?9?$AA?$DO?$AAh?$AAl?$AAe?$AAn?$AA?5?$AA?$DM?$AA?$DN?$AA?5?$AAs?$AAi?$AAz?$AAe?$AAo?$AAf?$AA?$CI?$AAs@ 0044c768     ssh.obj
 0002:000067cc       ??_C@_0DH@GKJOLHA@Server?8s?5host?5key?5did?5not?5match?5@ 0044c7cc     ssh.obj
 0002:00006808       ??_C@_1GK@PPJGKCMN@?$AAs?$AAs?$AAh?$AA?9?$AA?$DO?$AAv?$AA2?$AA_?$AAs?$AAe?$AAs?$AAs?$AAi?$AAo?$AAn?$AA_?$AAi?$AAd?$AA_?$AAl?$AAe?$AAn?$AA?5?$AA?$DM?$AA?$DN?$AA?5?$AAs?$AAi?$AAz?$AAe?$AAo?$AAf@ 0044c808     ssh.obj
 0002:00006878       ??_C@_1HI@CKCIBGJN@?$AAs?$AAi?$AAz?$AAe?$AAo?$AAf?$AA?$CI?$AAk?$AAe?$AAy?$AAs?$AAp?$AAa?$AAc?$AAe?$AA?$CJ?$AA?5?$AA?$DO?$AA?$DN?$AA?5?$AAs?$AAs?$AAh?$AA?9?$AA?$DO?$AAk?$AAe?$AAx?$AA?9?$AA?$DO?$AAh?$AAa@ 0044c878     ssh.obj
 0002:000068f0       ??_C@_1JC@PNFFALBJ@?$AA?$CI?$AAs?$AAs?$AAh?$AA?9?$AA?$DO?$AAc?$AAs?$AAc?$AAi?$AAp?$AAh?$AAe?$AAr?$AA?9?$AA?$DO?$AAk?$AAe?$AAy?$AAl?$AAe?$AAn?$AA?$CL?$AA7?$AA?$CJ?$AA?5?$AA?1?$AA?5?$AA8?$AA?5?$AA?$DM?$AA?$DN@ 0044c8f0     ssh.obj
 0002:00006988       ??_C@_1IE@JDJLFJMJ@?$AAs?$AAs?$AAh?$AA?9?$AA?$DO?$AAc?$AAs?$AAc?$AAi?$AAp?$AAh?$AAe?$AAr?$AA?9?$AA?$DO?$AAb?$AAl?$AAk?$AAs?$AAi?$AAz?$AAe?$AA?5?$AA?$DM?$AA?$DN?$AA?5?$AAs?$AAs?$AAh?$AA?9?$AA?$DO?$AAk@ 0044c988     ssh.obj
 0002:00006a10       ??_C@_1HG@JIAEFKGF@?$AAs?$AAs?$AAh?$AA?9?$AA?$DO?$AAc?$AAs?$AAm?$AAa?$AAc?$AA?9?$AA?$DO?$AAl?$AAe?$AAn?$AA?5?$AA?$DM?$AA?$DN?$AA?5?$AAs?$AAs?$AAh?$AA?9?$AA?$DO?$AAk?$AAe?$AAx?$AA?9?$AA?$DO?$AAh?$AAa?$AAs@ 0044ca10     ssh.obj
 0002:00006a88       ??_C@_0CN@DNAFNPKL@Initialised?5?$CF?4200s?5client?9?$DOserve@ 0044ca88     ssh.obj
 0002:00006ab8       ??_C@_0DA@GBPMNOLH@Initialised?5?$CF?4200s?5client?9?$DOserve@ 0044cab8     ssh.obj
 0002:00006ae8       ??_C@_0BL@CPEFOEDE@Initialised?5?$CFs?5compression?$AA@ 0044cae8     ssh.obj
 0002:00006b04       ??_C@_0CF@BDOMPJAO@expected?5new?9keys?5packet?5from?5se@ 0044cb04     ssh.obj
 0002:00006b30       ??_C@_1JC@OHBAPGDE@?$AA?$CI?$AAs?$AAs?$AAh?$AA?9?$AA?$DO?$AAs?$AAc?$AAc?$AAi?$AAp?$AAh?$AAe?$AAr?$AA?9?$AA?$DO?$AAk?$AAe?$AAy?$AAl?$AAe?$AAn?$AA?$CL?$AA7?$AA?$CJ?$AA?5?$AA?1?$AA?5?$AA8?$AA?5?$AA?$DM?$AA?$DN@ 0044cb30     ssh.obj
 0002:00006bc8       ??_C@_1IE@NGEODCDJ@?$AAs?$AAs?$AAh?$AA?9?$AA?$DO?$AAs?$AAc?$AAc?$AAi?$AAp?$AAh?$AAe?$AAr?$AA?9?$AA?$DO?$AAb?$AAl?$AAk?$AAs?$AAi?$AAz?$AAe?$AA?5?$AA?$DM?$AA?$DN?$AA?5?$AAs?$AAs?$AAh?$AA?9?$AA?$DO?$AAk@ 0044cbc8     ssh.obj
 0002:00006c50       ??_C@_1HG@CMDDEKNK@?$AAs?$AAs?$AAh?$AA?9?$AA?$DO?$AAs?$AAc?$AAm?$AAa?$AAc?$AA?9?$AA?$DO?$AAl?$AAe?$AAn?$AA?5?$AA?$DM?$AA?$DN?$AA?5?$AAs?$AAs?$AAh?$AA?9?$AA?$DO?$AAk?$AAe?$AAx?$AA?9?$AA?$DO?$AAh?$AAa?$AAs@ 0044cc50     ssh.obj
 0002:00006cc8       ??_C@_0CN@KDBFIANG@Initialised?5?$CF?4200s?5server?9?$DOclien@ 0044ccc8     ssh.obj
 0002:00006cf8       ??_C@_0DA@BNEBHENF@Initialised?5?$CF?4200s?5server?9?$DOclien@ 0044ccf8     ssh.obj
 0002:00006d28       ??_C@_0BN@ENMJAIOE@Initialised?5?$CFs?5decompression?$AA@ 0044cd28     ssh.obj
 0002:00006d48       ??_C@_0CB@BMPOPJIC@Server?5initiated?5key?5re?9exchange@ 0044cd48     ssh.obj
 0002:00006d6c       ??_C@_1CO@CCLDGOIK@?$AA?$CB?$AAs?$AA?9?$AA?$DO?$AAu?$AAs?$AAe?$AAr?$AAa?$AAu?$AAt?$AAh?$AA_?$AAs?$AAu?$AAc?$AAc?$AAe?$AAe?$AAd?$AAe?$AAd?$AA?$AA@ 0044cd6c     ssh.obj
 0002:00006d9c       ??_C@_0CJ@FAJGNKPA@Server?5bug?5prevents?5key?5re?9excha@ 0044cd9c     ssh.obj
 0002:00006dc8       ??_C@_0CA@LLJFCKBB@Initiating?5key?5re?9exchange?5?$CI?$CFs?$CJ?$AA@ 0044cdc8     ssh.obj
 0002:00006de8       ??_C@_1GO@JNONPFFN@?$AA?$CB?$AA?$CI?$AAc?$AA?9?$AA?$DO?$AAc?$AAl?$AAo?$AAs?$AAe?$AAs?$AA?5?$AA?$CG?$AA?5?$AA?$CI?$AAC?$AAL?$AAO?$AAS?$AAE?$AAS?$AA_?$AAS?$AAE?$AAN?$AAT?$AA_?$AAC?$AAL?$AAO?$AAS?$AAE@ 0044cde8     ssh.obj
 0002:00006e58       ??_C@_0CD@KMOOFNJC@winadj?$EAputty?4projects?4tartarus?4o@ 0044ce58     ssh.obj
 0002:00006e7c       ??_C@_0BO@FNGJIAKB@Received?5?$CFs?5for?5?$CFs?5channel?5?$CFu?$AA@ 0044ce7c     ssh.obj
 0002:00006e9c       ??_C@_0CE@LIFBFNHP@Forwarded?5X11?5connection?5termina@ 0044ce9c     ssh.obj
 0002:00006ec0       ??_C@_0BG@FMJABBMD@Forwarded?5port?5closed?$AA@ 0044cec0     ssh.obj
 0002:00006ed8       ??_C@_1DK@HJIHJEOE@?$AAc?$AA?9?$AA?$DO?$AAv?$AA?4?$AAv?$AA2?$AA?4?$AAc?$AAh?$AAa?$AAn?$AAr?$AAe?$AAq?$AA_?$AAh?$AAe?$AAa?$AAd?$AA?5?$AA?$DN?$AA?$DN?$AA?5?$AAN?$AAU?$AAL?$AAL?$AA?$AA@ 0044ced8     ssh.obj
 0002:00006f14       ??_C@_0BE@HFPGNDHC@All?5channels?5closed?$AA@ 0044cf14     ssh.obj
 0002:00006f28       ??_C@_0DC@FCCKDCHI@Forwarded?5connection?5refused?5by?5@ 0044cf28     ssh.obj
 0002:00006f5c       ??_C@_0M@MJOADHAD@exit?9status?$AA@ 0044cf5c     ssh.obj
 0002:00006f68       ??_C@_0M@BADJGBCP@exit?9signal?$AA@ 0044cf68     ssh.obj
 0002:00006f74       ??_C@_03EBJOKFHF@?5?$CFd?$AA@ 0044cf74     ssh.obj
 0002:00006f78       ??_C@_07CMJDLAOG@?5?$CC?$CF?4?$CKs?$CC?$AA@ 0044cf78     ssh.obj
 0002:00006f80       ??_C@_04NMLMILCD@ABRT?$AA@ 0044cf80     ssh.obj
 0002:00006f88       ??_C@_03IBHGLCPC@FPE?$AA@  0044cf88     ssh.obj
 0002:00006f8c       ??_C@_03BNOLEDPJ@ILL?$AA@  0044cf8c     ssh.obj
 0002:00006f90       ??_C@_03JMHEAPMO@INT?$AA@  0044cf90     ssh.obj
 0002:00006f94       ??_C@_04HDJAHEGB@SEGV?$AA@ 0044cf94     ssh.obj
 0002:00006f9c       ??_C@_04HCGLACHA@TERM?$AA@ 0044cf9c     ssh.obj
 0002:00006fa4       ??_C@_09PMAFJGAG@?5?$CI?$CC?$CF?4?$CKs?$CC?$CJ?$AA@ 0044cfa4     ssh.obj
 0002:00006fb0       ??_C@_0P@EHDBBIE@?5?$CIcore?5dumped?$CJ?$AA@ 0044cfb0     ssh.obj
 0002:00006fc0       ??_C@_0BO@FKFCDOH@Server?5exited?5on?5signal?$CFs?$CFs?$CFs?$AA@ 0044cfc0     ssh.obj
 0002:00006fe0       ??_C@_03JDMECAIF@x11?$AA@  0044cfe0     ssh.obj
 0002:00006fe4       ??_C@_0CI@JDEICECH@Received?5X11?5connect?5request?5fro@ 0044cfe4     ssh.obj
 0002:0000700c       ??_C@_0BO@FLPJMLBD@X11?5forwarding?5is?5not?5enabled?$AA@ 0044d00c     ssh.obj
 0002:0000702c       ??_C@_0CA@MNHPPFGO@Local?5X11?5connection?5failed?3?5?$CFs?$AA@ 0044d02c     ssh.obj
 0002:0000704c       ??_C@_0CB@IGAAAEDG@Unable?5to?5open?5an?5X11?5connection@ 0044d04c     ssh.obj
 0002:00007070       ??_C@_0BA@MPAJONKF@forwarded?9tcpip?$AA@ 0044d070     ssh.obj
 0002:00007080       ??_C@_0DA@KHHGECEF@Received?5remote?5port?5?$CFd?5open?5req@ 0044d080     ssh.obj
 0002:000070b0       ??_C@_0BO@LMGPEPNK@Remote?5port?5is?5not?5recognised?$AA@ 0044d0b0     ssh.obj
 0002:000070d0       ??_C@_0CL@MKDBLGKK@Attempting?5to?5forward?5remote?5por@ 0044d0d0     ssh.obj
 0002:000070fc       ??_C@_0BB@FKKHANPB@Port?5open?5failed?$AA@ 0044d0fc     ssh.obj
 0002:00007110       ??_C@_0BH@JNENGLL@auth?9agent?$EAopenssh?4com?$AA@ 0044d110     ssh.obj
 0002:00007128       ??_C@_0CA@EEBEKEFK@Agent?5forwarding?5is?5not?5enabled?$AA@ 0044d128     ssh.obj
 0002:00007148       ??_C@_0CD@NKNFOAC@Unsupported?5channel?5type?5request@ 0044d148     ssh.obj
 0002:0000716c       ??_C@_0BK@JJHNBNPN@Rejected?5channel?5open?3?5?$CFs?$AA@ 0044d16c     ssh.obj
 0002:00007188       ??_C@_07KEAFBCID@x11?9req?$AA@ 0044d188     ssh.obj
 0002:00007190       ??_C@_0CK@IINCNAMA@Requesting?5OpenSSH?9style?5agent?5f@ 0044d190     ssh.obj
 0002:000071bc       ??_C@_0BL@ODIECNBN@auth?9agent?9req?$EAopenssh?4com?$AA@ 0044d1bc     ssh.obj
 0002:000071d8       ??_C@_07ICNINLOJ@pty?9req?$AA@ 0044d1d8     ssh.obj
 0002:000071e0       ??_C@_03OJGPBPII@env?$AA@  0044d1e0     ssh.obj
 0002:000071e4       ??_C@_0BO@HIHEGAAJ@Sent?5?$CFd?5environment?5variables?$AA@ 0044d1e4     ssh.obj
 0002:00007204       ??_C@_0CL@GINABBJG@All?5environment?5variables?5succes@ 0044d204     ssh.obj
 0002:00007230       ??_C@_0CC@PMCIAKHB@All?5environment?5variables?5refuse@ 0044d230     ssh.obj
 0002:00007254       ??_C@_0CO@JFFMBKPB@Server?5refused?5to?5set?5environmen@ 0044d254     ssh.obj
 0002:00007284       ??_C@_0CB@BNLCEMFI@?$CFd?5environment?5variables?5refused@ 0044d284     ssh.obj
 0002:000072a8       ??_C@_0DC@OIIOIOKD@Server?5refused?5to?5set?5all?5enviro@ 0044d2a8     ssh.obj
 0002:000072dc       ??_C@_0N@PFDFPFDP@ssh?9userauth?$AA@ 0044d2dc     ssh.obj
 0002:000072ec       ??_C@_0P@GGBAGEAJ@ssh?9connection?$AA@ 0044d2ec     ssh.obj
 0002:000072fc       ??_C@_0BP@KICOCFND@Server?5refused?5service?5request?$AA@ 0044d2fc     ssh.obj
 0002:0000731c       ??_C@_0BK@HDIFEFBP@Pageant?5has?5?$CFd?5SSH?92?5keys?$AA@ 0044d31c     ssh.obj
 0002:00007338       ??_C@_0BH@IELFLDAD@Using?5username?5?$CC?$CFs?$CC?4?$AN?6?$AA@ 0044d338     ssh.obj
 0002:00007350       ??_C@_0P@LPLEDOON@Access?5granted?$AA@ 0044d350     ssh.obj
 0002:00007360       ??_C@_0DH@ECLBMCOH@Strange?5packet?5received?5during?5a@ 0044d360     ssh.obj
 0002:00007398       ??_C@_0BJ@BPEHFHGE@Server?5refused?5our?5key?$AN?6?$AA@ 0044d398     ssh.obj
 0002:000073b4       ??_C@_0BH@HIMMAADC@Server?5refused?5our?5key?$AA@ 0044d3b4     ssh.obj
 0002:000073cc       ??_C@_0DN@BONOABCC@Server?5refused?5public?9key?5signat@ 0044d3cc     ssh.obj
 0002:0000740c       ??_C@_0DL@ONBECNBL@Server?5refused?5public?9key?5signat@ 0044d40c     ssh.obj
 0002:00007448       ??_C@_0DD@BEEHJIGP@Server?5refused?5keyboard?9interact@ 0044d448     ssh.obj
 0002:0000747c       ??_C@_0CL@CDEOKJHD@Keyboard?9interactive?5authenticat@ 0044d47c     ssh.obj
 0002:000074a8       ??_C@_1DM@EGLMOCOB@?$AAs?$AA?9?$AA?$DO?$AAt?$AAy?$AAp?$AAe?$AA?5?$AA?$DN?$AA?$DN?$AA?5?$AAA?$AAU?$AAT?$AAH?$AA_?$AAT?$AAY?$AAP?$AAE?$AA_?$AAP?$AAA?$AAS?$AAS?$AAW?$AAO?$AAR?$AAD?$AA?$AA@ 0044d4a8     ssh.obj
 0002:000074e4       ??_C@_0BP@KJPEJJMM@Password?5authentication?5failed?$AA@ 0044d4e4     ssh.obj
 0002:00007504       ??_C@_0CC@KLJPBIDO@Further?5authentication?5required?$AN@ 0044d504     ssh.obj
 0002:00007528       ??_C@_0CA@FPFFAHFF@Further?5authentication?5required?$AA@ 0044d528     ssh.obj
 0002:00007548       ??_C@_09CDHPPNKF@publickey?$AA@ 0044d548     ssh.obj
 0002:00007554       ??_C@_08NLHBPEGP@password?$AA@ 0044d554     ssh.obj
 0002:00007560       ??_C@_0BF@DPMEINNL@keyboard?9interactive?$AA@ 0044d560     ssh.obj
 0002:00007578       ??_C@_0BA@GOOLCFMC@gssapi?9with?9mic?$AA@ 0044d578     ssh.obj
 0002:00007588       ??_C@_0CB@JFDOEIL@Authenticating?5with?5public?5key?5?$CC@ 0044d588     ssh.obj
 0002:000075ac       ??_C@_0BD@DDBLIJDE@Offered?5public?5key?$AA@ 0044d5ac     ssh.obj
 0002:000075c0       ??_C@_0BN@IOLDOLCO@Offer?5of?5public?5key?5accepted?$AA@ 0044d5c0     ssh.obj
 0002:000075e0       ??_C@_03CGLHDMIP@?$CC?$AN?6?$AA@ 0044d5e0     ssh.obj
 0002:000075e4       ??_C@_0BD@DNDCGNLP@Wrong?5passphrase?$AN?6?$AA@ 0044d5e4     ssh.obj
 0002:000075f8       ??_C@_0BN@DNGDDBIL@Unable?5to?5load?5private?5key?5?$CI?$AA@ 0044d5f8     ssh.obj
 0002:00007618       ??_C@_03PBLGLLIO@?$CJ?$AN?6?$AA@ 0044d618     ssh.obj
 0002:0000761c       ??_C@_1CC@BKAHAKAA@?$AAp?$AA?5?$AA?$DN?$AA?$DN?$AA?5?$AAs?$AAi?$AAg?$AAd?$AAa?$AAt?$AAa?$AA_?$AAl?$AAe?$AAn?$AA?$AA@ 0044d61c     ssh.obj
 0002:00007640       ??_C@_0BK@NAHGMKKB@Sent?5public?5key?5signature?$AA@ 0044d640     ssh.obj
 0002:0000765c       ??_C@_1BE@HBBMCKIL@?$AAs?$AA?9?$AA?$DO?$AAg?$AAs?$AAs?$AAl?$AAi?$AAb?$AA?$AA@ 0044d65c     ssh.obj
 0002:00007670       ??_C@_0CB@FPBMDJML@Attempting?5GSSAPI?5authentication@ 0044d670     ssh.obj
 0002:00007694       ??_C@_0CG@MELLCDMH@GSSAPI?5authentication?5request?5re@ 0044d694     ssh.obj
 0002:000076bc       ??_C@_0DD@FFIAANDK@GSSAPI?5authentication?5?9?5wrong?5re@ 0044d6bc     ssh.obj
 0002:000076f0       ??_C@_0CN@NABGGJBN@GSSAPI?5import?5name?5failed?5?9?5Bad?5@ 0044d6f0     ssh.obj
 0002:00007720       ??_C@_0BK@LEKFMOIC@GSSAPI?5import?5name?5failed?$AA@ 0044d720     ssh.obj
 0002:0000773c       ??_C@_0DA@OOMCFFDO@GSSAPI?5authentication?5failed?5to?5@ 0044d73c     ssh.obj
 0002:0000776c       ??_C@_0CM@HHFHEEBL@GSSAPI?5authentication?5initialisa@ 0044d76c     ssh.obj
 0002:00007798       ??_C@_0CC@BOGFFJOM@GSSAPI?5authentication?5initialise@ 0044d798     ssh.obj
 0002:000077bc       ??_C@_0CM@OODDKJP@GSSAPI?5authentication?5?9?5bad?5serv@ 0044d7bc     ssh.obj
 0002:000077e8       ??_C@_0CH@MFIPJJLP@GSSAPI?5authentication?5loop?5finis@ 0044d7e8     ssh.obj
 0002:00007810       ??_C@_0CP@HNFBPPPF@Attempting?5keyboard?9interactive?5@ 0044d810     ssh.obj
 0002:00007840       ??_C@_0BB@GHPGDDBC@SSH?5server?3?5?$CF?4?$CKs?$AA@ 0044d840     ssh.obj
 0002:00007854       ??_C@_0BK@FCMADENN@SSH?5server?5authentication?$AA@ 0044d854     ssh.obj
 0002:00007870       ??_C@_0DB@DDCAOGIL@Using?5keyboard?9interactive?5authe@ 0044d870     ssh.obj
 0002:000078a4       ??_C@_0CB@IHLPLHJJ@Server?5requested?5password?5change@ 0044d8a4     ssh.obj
 0002:000078c8       ??_C@_0BN@NDNEHCCL@Server?5rejected?5new?5password?$AA@ 0044d8c8     ssh.obj
 0002:000078e8       ??_C@_0BB@CHKHFJNI@New?5SSH?5password?$AA@ 0044d8e8     ssh.obj
 0002:000078fc       ??_C@_0DL@HGODMPAK@Current?5password?5?$CIblank?5for?5prev@ 0044d8fc     ssh.obj
 0002:00007938       ??_C@_0BF@MMNFOGGN@Enter?5new?5password?3?5?$AA@ 0044d938     ssh.obj
 0002:00007950       ??_C@_0BH@HMNNKBPF@Confirm?5new?5password?3?5?$AA@ 0044d950     ssh.obj
 0002:00007968       ??_C@_0BJ@CGLIMECO@Passwords?5do?5not?5match?$AN?6?$AA@ 0044d968     ssh.obj
 0002:00007984       ??_C@_0BC@CHKHFAHJ@Sent?5new?5password?$AA@ 0044d984     ssh.obj
 0002:00007998       ??_C@_0EC@KPGJHMGC@No?5supported?5authentication?5meth@ 0044d998     ssh.obj
 0002:000079dc       ??_C@_0BN@MMEDNKGO@enabling?5delayed?5compression?$AA@ 0044d9dc     ssh.obj
 0002:000079fc       ??_C@_0N@DDNPCALO@main?5channel?$AA@ 0044d9fc     ssh.obj
 0002:00007a0c       ??_C@_07KMJDECGK@session?$AA@ 0044da0c     ssh.obj
 0002:00007a14       ??_C@_0CA@NCGALLDP@Opening?5session?5as?5main?5channel?$AA@ 0044da14     ssh.obj
 0002:00007a34       ??_C@_0BP@MOFKNBIM@Server?5refused?5to?5open?5channel?$AA@ 0044da34     ssh.obj
 0002:00007a54       ??_C@_0DC@ODPFOHPP@Server?8s?5channel?5confirmation?5ci@ 0044da54     ssh.obj
 0002:00007a88       ??_C@_0BE@HFBJICFG@Opened?5main?5channel?$AA@ 0044da88     ssh.obj
 0002:00007a9c       ??_C@_0CD@GJILCFNH@simple?$EAputty?4projects?4tartarus?4o@ 0044da9c     ssh.obj
 0002:00007ac0       ??_C@_09BMDMKPAE@subsystem?$AA@ 0044dac0     ssh.obj
 0002:00007acc       ??_C@_04MGEIEJAD@exec?$AA@ 0044dacc     ssh.obj
 0002:00007ad4       ??_C@_05OOLEAMGB@shell?$AA@ 0044dad4     ssh.obj
 0002:00007adc       ??_C@_0DN@CODALALO@Unexpected?5response?5to?5shell?1com@ 0044dadc     ssh.obj
 0002:00007b1c       ??_C@_0CM@BGEKHIMM@Primary?5command?5failed?$DL?5attempti@ 0044db1c     ssh.obj
 0002:00007b48       ??_C@_0CI@OLBEMKMK@Server?5refused?5to?5start?5a?5shell?1@ 0044db48     ssh.obj
 0002:00007b70       ??_C@_0BI@EDCBOILC@Started?5a?5shell?1command?$AA@ 0044db70     ssh.obj
 0002:00007b88       ??_C@_0CB@DDJLGNIB@Received?5disconnect?5message?5?$CI?$CFs?$CJ@ 0044db88     ssh.obj
 0002:00007bac       ??_C@_0CO@PBKIENBF@Received?5disconnect?5message?5?$CIunk@ 0044dbac     ssh.obj
 0002:00007bdc       ??_C@_0CB@GFDHHEBP@Disconnection?5message?5text?3?5?$CF?4?$CKs@ 0044dbdc     ssh.obj
 0002:00007c00       ??_C@_0DE@MGFODNFD@Server?5sent?5disconnect?5message?6t@ 0044dc00     ssh.obj
 0002:00007c34       ??_C@_0DA@OGGEBMHM@Server?5protocol?5violation?3?5unexp@ 0044dc34     ssh.obj
 0002:00007c64       ??_C@_07DDHNKDGP@timeout?$AA@ 0044dc64     ssh.obj
 0002:00007c6c       ??_C@_0BH@DNJFBLLH@too?5much?5data?5received?$AA@ 0044dc6c     ssh.obj
 0002:00007c84       ??_C@_0BC@IGLKLAN@timeout?5shortened?$AA@ 0044dc84     ssh.obj
 0002:00007c98       ??_C@_0BD@FLFHDLKA@data?5limit?5lowered?$AA@ 0044dc98     ssh.obj
 0002:00007cac       ??_C@_0BM@GOPPIFO@compression?5setting?5changed?$AA@ 0044dcac     ssh.obj
 0002:00007cc8       ??_C@_0BI@PHNLEPIC@cipher?5settings?5changed?$AA@ 0044dcc8     ssh.obj
 0002:00007ce0       ??_C@_0O@KLPDNEAE@window?9change?$AA@ 0044dce0     ssh.obj
 0002:00007cf0       ??_C@_1GO@GOGPJILL@?$AA?$CI?$AAi?$AA?5?$AA?$CL?$AA?5?$AAl?$AAe?$AAn?$AAo?$AAf?$AA?$CI?$AAs?$AAs?$AAh?$AA2?$AA_?$AAr?$AAe?$AAk?$AAe?$AAy?$AA_?$AAs?$AAp?$AAe?$AAc?$AAi?$AAa?$AAl?$AA?$CJ?$AA?$CJ?$AA?5@ 0044dcf0     ssh.obj
 0002:00007d60       ??_C@_1HE@HGPJBCNB@?$AA?$CI?$AAi?$AA?5?$AA?$CL?$AA?5?$AAl?$AAe?$AAn?$AAo?$AAf?$AA?$CI?$AAs?$AAs?$AAh?$AA2?$AA_?$AAs?$AAe?$AAs?$AAs?$AAi?$AAo?$AAn?$AA_?$AAs?$AAp?$AAe?$AAc?$AAi?$AAa?$AAl?$AAs@ 0044dd60     ssh.obj
 0002:00007dd8       ??_C@_1GC@JPIOOLAB@?$AA?$CI?$AAi?$AA?5?$AA?$CL?$AA?5?$AAl?$AAe?$AAn?$AAo?$AAf?$AA?$CI?$AAs?$AAp?$AAe?$AAc?$AAi?$AAa?$AAl?$AAs?$AA_?$AAe?$AAn?$AAd?$AA?$CJ?$AA?$CJ?$AA?5?$AA?$DM?$AA?$DN?$AA?5?$AAl?$AAe?$AAn@ 0044ddd8     ssh.obj
 0002:00007e3c       ??_C@_0BB@IHMOKBH@Sent?5EOF?5message?$AA@ 0044de3c     ssh.obj
 0002:00007e50       ??_C@_0BA@LHEDDHPK@at?5user?5request?$AA@ 0044de50     ssh.obj
 0002:00007e60       ??_C@_0CF@MFNOKJOJ@Unable?5to?5send?5BREAK?5signal?5in?5S@ 0044de60     ssh.obj
 0002:00007e88       ??_C@_05ELPHFHOI@break?$AA@ 0044de88     ssh.obj
 0002:00007e90       ??_C@_04KHGDFFAI@ALRM?$AA@ 0044de90     ssh.obj
 0002:00007e98       ??_C@_03FANHOBDO@HUP?$AA@  0044de98     ssh.obj
 0002:00007e9c       ??_C@_04GGAEFGO@PIPE?$AA@  0044de9c     ssh.obj
 0002:00007ea4       ??_C@_04LJPDBFHJ@USR1?$AA@ 0044dea4     ssh.obj
 0002:00007eac       ??_C@_04JCNOEGLK@USR2?$AA@ 0044deac     ssh.obj
 0002:00007eb4       ??_C@_06OAFOBKHE@signal?$AA@ 0044deb4     ssh.obj
 0002:00007ebc       ??_C@_0BC@NNMLKAOO@Sent?5signal?5SIG?$CFs?$AA@ 0044debc     ssh.obj
 0002:00007ed0       ??_C@_0CD@BOHMBDGD@Opening?5connection?5to?5?$CFs?3?$CFd?5for?5@ 0044ded0     ssh.obj
 0002:00007ef4       ??_C@_0N@LEADGKPC@direct?9tcpip?$AA@ 0044def4     ssh.obj
 0002:00007f04       ??_C@_07OHKHACFK@0?40?40?40?$AA@ 0044df04     ssh.obj
 0002:00007f30       _ssh2_aes                  0044df30     sshaes.obj
 0002:0000a2c8       ??_C@_0L@DLEDDNDH@aes128?9ctr?$AA@ 004502c8     sshaes.obj
 0002:0000a2d4       ??_C@_0O@HCOECJE@AES?9128?5SDCTR?$AA@ 004502d4     sshaes.obj
 0002:0000a2e4       ??_C@_0L@JINPEKKL@aes192?9ctr?$AA@ 004502e4     sshaes.obj
 0002:0000a2f0       ??_C@_0O@BELLMAIB@AES?9192?5SDCTR?$AA@ 004502f0     sshaes.obj
 0002:0000a300       ??_C@_0L@EKGBGFCK@aes256?9ctr?$AA@ 00450300     sshaes.obj
 0002:0000a30c       ??_C@_0O@JNPCIGGM@AES?9256?5SDCTR?$AA@ 0045030c     sshaes.obj
 0002:0000a31c       ??_C@_0L@HADBMBOF@aes128?9cbc?$AA@ 0045031c     sshaes.obj
 0002:0000a328       ??_C@_0M@NHPGNAPK@AES?9128?5CBC?$AA@ 00450328     sshaes.obj
 0002:0000a334       ??_C@_0L@NDKNLGHJ@aes192?9cbc?$AA@ 00450334     sshaes.obj
 0002:0000a340       ??_C@_0M@HEGKKHGG@AES?9192?5CBC?$AA@ 00450340     sshaes.obj
 0002:0000a34c       ??_C@_0L@BBDJJPI@aes256?9cbc?$AA@ 0045034c     sshaes.obj
 0002:0000a358       ??_C@_0M@KGNEIIOH@AES?9256?5CBC?$AA@ 00450358     sshaes.obj
 0002:0000a364       ??_C@_0BM@MGEJEKIP@rijndael?9cbc?$EAlysator?4liu?4se?$AA@ 00450364     sshaes.obj
 0002:0000a380       ??_C@_1BI@FNOKOHIF@?$AA?4?$AA?4?$AA?2?$AAs?$AAs?$AAh?$AAa?$AAe?$AAs?$AA?4?$AAc?$AA?$AA@ 00450380     sshaes.obj
 0002:0000a398       ??_C@_1GG@KBLHJPFM@?$AAb?$AAl?$AAo?$AAc?$AAk?$AAl?$AAe?$AAn?$AA?5?$AA?$DN?$AA?$DN?$AA?5?$AA1?$AA6?$AA?5?$AA?$HM?$AA?$HM?$AA?5?$AAb?$AAl?$AAo?$AAc?$AAk?$AAl?$AAe?$AAn?$AA?5?$AA?$DN?$AA?$DN?$AA?5?$AA2?$AA4@ 00450398     sshaes.obj
 0002:0000a400       ??_C@_1FK@NLFGMJEL@?$AAk?$AAe?$AAy?$AAl?$AAe?$AAn?$AA?5?$AA?$DN?$AA?$DN?$AA?5?$AA1?$AA6?$AA?5?$AA?$HM?$AA?$HM?$AA?5?$AAk?$AAe?$AAy?$AAl?$AAe?$AAn?$AA?5?$AA?$DN?$AA?$DN?$AA?5?$AA2?$AA4?$AA?5?$AA?$HM?$AA?$HM?$AA?5@ 00450400     sshaes.obj
 0002:0000a45c       ??_C@_1CA@HEBGNHHD@?$AA?$CI?$AAl?$AAe?$AAn?$AA?5?$AA?$CG?$AA?5?$AA1?$AA5?$AA?$CJ?$AA?5?$AA?$DN?$AA?$DN?$AA?5?$AA0?$AA?$AA@ 0045045c     sshaes.obj
 0002:0000a47c       _ssh2_arcfour              0045047c     ssharcf.obj
 0002:0000a484       _ssh_arcfour128_ssh2       00450484     ssharcf.obj
 0002:0000a4b0       _ssh_arcfour256_ssh2       004504b0     ssharcf.obj
 0002:0000a4e4       ??_C@_0L@FJBAEHAD@arcfour128?$AA@ 004504e4     ssharcf.obj
 0002:0000a4f0       ??_C@_0M@CMMMHGEF@Arcfour?9128?$AA@ 004504f0     ssharcf.obj
 0002:0000a4fc       ??_C@_0L@NAGJNDOG@arcfour256?$AA@ 004504fc     ssharcf.obj
 0002:0000a508       ??_C@_0M@KFLFOCKA@Arcfour?9256?$AA@ 00450508     ssharcf.obj
 0002:0000a514       ??_C@_1BK@EHJJFLKD@?$AA?4?$AA?4?$AA?2?$AAs?$AAs?$AAh?$AAa?$AAr?$AAc?$AAf?$AA?4?$AAc?$AA?$AA@ 00450514     ssharcf.obj
 0002:0000a530       ??_C@_1CA@NEGFHBCJ@?$AAk?$AAe?$AAy?$AAb?$AAy?$AAt?$AAe?$AAs?$AA?5?$AA?$DM?$AA?$DN?$AA?5?$AA2?$AA5?$AA6?$AA?$AA@ 00450530     ssharcf.obj
 0002:0000a550       _ssh_blowfish_ssh1         00450550     sshblowf.obj
 0002:0000a56c       _ssh2_blowfish             0045056c     sshblowf.obj
 0002:0000b620       ??_C@_0BB@LCGIDLK@Blowfish?9128?5CBC?$AA@ 00451620     sshblowf.obj
 0002:0000b634       ??_C@_0N@KIHOJLLD@blowfish?9cbc?$AA@ 00451634     sshblowf.obj
 0002:0000b644       ??_C@_0N@ODAMGHGB@blowfish?9ctr?$AA@ 00451644     sshblowf.obj
 0002:0000b654       ??_C@_0BD@JPOJBFPH@Blowfish?9256?5SDCTR?$AA@ 00451654     sshblowf.obj
 0002:0000b668       ??_C@_1BM@FADJMCIB@?$AA?4?$AA?4?$AA?2?$AAs?$AAs?$AAh?$AAb?$AAl?$AAo?$AAw?$AAf?$AA?4?$AAc?$AA?$AA@ 00451668     sshblowf.obj
 0002:0000b684       ??_C@_1BO@CPHGGKB@?$AA?$CI?$AAl?$AAe?$AAn?$AA?5?$AA?$CG?$AA?5?$AA7?$AA?$CJ?$AA?5?$AA?$DN?$AA?$DN?$AA?5?$AA0?$AA?$AA@ 00451684     sshblowf.obj
 0002:0000b6a4       ??_C@_1BG@NFJADPKO@?$AA?4?$AA?4?$AA?2?$AAs?$AAs?$AAh?$AAb?$AAn?$AA?4?$AAc?$AA?$AA@ 004516a4     sshbn.obj
 0002:0000b6bc       ??_C@_1O@ILILCEBJ@?$AAi?$AA?5?$AA?$DO?$AA?$DN?$AA?5?$AA0?$AA?$AA@ 004516bc     sshbn.obj
 0002:0000b6cc       ??_C@_1CC@CNCFMNFF@?$AAm?$AAo?$AAd?$AA?$FL?$AAm?$AAo?$AAd?$AA?$FL?$AA0?$AA?$FN?$AA?$FN?$AA?5?$AA?$CB?$AA?$DN?$AA?5?$AA0?$AA?$AA@ 004516cc     sshbn.obj
 0002:0000baf0       ??_C@_1BM@JACOEEIP@?$AA?4?$AA?4?$AA?2?$AAs?$AAs?$AAh?$AAc?$AAr?$AAc?$AAd?$AAa?$AA?4?$AAc?$AA?$AA@ 00451af0     sshcrcda.obj
 0002:0000bb10       ??_C@_1IK@KCKLAJE@?$AA?$CB?$AA?$CI?$AAl?$AAe?$AAn?$AA?5?$AA?$DO?$AA?5?$AA?$CI?$AAS?$AAS?$AAH?$AA_?$AAM?$AAA?$AAX?$AAB?$AAL?$AAO?$AAC?$AAK?$AAS?$AA?5?$AA?$CK?$AA?5?$AAS?$AAS?$AAH?$AA_?$AAB?$AAL?$AAO@ 00451b10     sshcrcda.obj
 0002:0000bba0       _ssh_3des                  00451ba0     sshdes.obj
 0002:0000bbbc       _ssh_des                   00451bbc     sshdes.obj
 0002:0000bbd8       _ssh2_3des                 00451bd8     sshdes.obj
 0002:0000bbe0       _ssh2_des                  00451be0     sshdes.obj
 0002:0000c6c8       ??_C@_08BLJCDBFI@3des?9cbc?$AA@ 004526c8     sshdes.obj
 0002:0000c6d4       ??_C@_0P@MNELLKGN@triple?9DES?5CBC?$AA@ 004526d4     sshdes.obj
 0002:0000c6e4       ??_C@_08FAOAMNIK@3des?9ctr?$AA@ 004526e4     sshdes.obj
 0002:0000c6f0       ??_C@_0BB@JEEJMMLC@triple?9DES?5SDCTR?$AA@ 004526f0     sshdes.obj
 0002:0000c704       ??_C@_07IPAFAGII@des?9cbc?$AA@ 00452704     sshdes.obj
 0002:0000c70c       ??_C@_0P@HKDDLANN@single?9DES?5CBC?$AA@ 0045270c     sshdes.obj
 0002:0000c71c       ??_C@_0BA@IBKFJPCP@des?9cbc?$EAssh?4com?$AA@ 0045271c     sshdes.obj
 0002:0000c72c       ??_C@_0BF@OCGINFLB@triple?9DES?5inner?9CBC?$AA@ 0045272c     sshdes.obj
 0002:0000c744       ??_C@_1BI@MFEJJAJF@?$AA?4?$AA?4?$AA?2?$AAs?$AAs?$AAh?$AAd?$AAe?$AAs?$AA?4?$AAc?$AA?$AA@ 00452744     sshdes.obj
 0002:0000c760       _ssh_diffiehellman_group1  00452760     sshdh.obj
 0002:0000c768       _ssh_diffiehellman_group14 00452768     sshdh.obj
 0002:0000c770       _ssh_diffiehellman_gex     00452770     sshdh.obj
 0002:0000c98c       ??_C@_0BL@PFLALLMH@diffie?9hellman?9group1?9sha1?$AA@ 0045298c     sshdh.obj
 0002:0000c9a8       ??_C@_06LPEHCBPA@group1?$AA@ 004529a8     sshdh.obj
 0002:0000c9b0       ??_C@_0BM@BOOJHCJ@diffie?9hellman?9group14?9sha1?$AA@ 004529b0     sshdh.obj
 0002:0000c9cc       ??_C@_07GCIEGMK@group14?$AA@ 004529cc     sshdh.obj
 0002:0000c9d4       ??_C@_0CF@GMBBFDCM@diffie?9hellman?9group?9exchange?9sh@ 004529d4     sshdh.obj
 0002:0000c9fc       ??_C@_0CD@MOBIAEI@diffie?9hellman?9group?9exchange?9sh@ 004529fc     sshdh.obj
 0002:0000ca20       _ssh_dss                   00452a20     sshdss.obj
 0002:0000ca6c       ??_C@_03DIFKLMIL@dss?$AA@  00452a6c     sshdss.obj
 0002:0000ca70       ??_C@_07FOJFIGLJ@ssh?9dss?$AA@ 00452a70     sshdss.obj
 0002:0000ca78       ??_C@_02MDDDDAID@0x?$AA@   00452a78     sshdss.obj
 0002:0000ca7c       ??_C@_03PHNCCGAL@?00x?$AA@ 00452a7c     sshdss.obj
 0002:0000ca80       ??_C@_0M@CEADPCHG@?$AA?$AA?$AA?$AHssh?9dss?$AA@ 00452a80     sshdss.obj
 0002:0000ca8c       ??_C@_0M@IJFAFDNI@ssh?9dss?5?$CFd?5?$AA@ 00452a8c     sshdss.obj
 0002:0000ca98       ??_C@_06ELKDNDAA@?$CFs?$CF02x?$AA@ 00452a98     sshdss.obj
 0002:0000caa0       ??_C@_1BI@OPPJGBDK@?$AA?4?$AA?4?$AA?2?$AAs?$AAs?$AAh?$AAd?$AAs?$AAs?$AA?4?$AAc?$AA?$AA@ 00452aa0     sshdss.obj
 0002:0000cab8       ??_C@_1CI@EFOJPBNN@?$AAp?$AA?5?$AA?$DN?$AA?$DN?$AA?5?$AAb?$AAl?$AAo?$AAb?$AA?5?$AA?$CL?$AA?5?$AAb?$AAl?$AAo?$AAb?$AAl?$AAe?$AAn?$AA?$AA@ 00452ab8     sshdss.obj
 0002:0000cae0       ??_C@_0BO@DJMBCJHK@DSA?5deterministic?5k?5generator?$AA@ 00452ae0     sshdss.obj
 0002:0000cb00       ??_C@_05GLPDLDAM@host?$EA?$AA@ 00452b00     sshgssc.obj
 0002:0000cb08       _ssh_hmac_md5              00452b08     sshmd5.obj
 0002:0000cb38       ??_C@_08LPACCAD@hmac?9md5?$AA@ 00452b38     sshmd5.obj
 0002:0000cb44       ??_C@_08CABJBHIC@HMAC?9MD5?$AA@ 00452b44     sshmd5.obj
 0002:0000cb50       ??_C@_0BD@IONICDPN@error?5reading?5file?$AA@ 00452b50     sshpubk.obj
 0002:0000cb64       ??_C@_0BC@NPBJDJGK@file?5format?5error?$AA@ 00452b64     sshpubk.obj
 0002:0000cb78       ??_C@_0BB@HNDNBCMJ@wrong?5passphrase?$AA@ 00452b78     sshpubk.obj
 0002:0000cb8c       ??_C@_0BC@DEMJHLHP@rsa_verify?5failed?$AA@ 00452b8c     sshpubk.obj
 0002:0000cba0       ??_C@_02JDPG@rb?$AA@       00452ba0     sshpubk.obj
 0002:0000cba4       ??_C@_0BA@ENOJCGDH@can?8t?5open?5file?$AA@ 00452ba4     sshpubk.obj
 0002:0000cbb4       ??_C@_0CB@KLPNCBJK@SSH?5PRIVATE?5KEY?5FILE?5FORMAT?51?41?6@ 00452bb4     sshpubk.obj
 0002:0000cbd8       ??_C@_0BG@BDKEBGIA@not?5an?5SSH?91?5RSA?5file?$AA@ 00452bd8     sshpubk.obj
 0002:0000cbf0       ??_C@_0BG@GFACEDGM@PuTTY?9User?9Key?9File?92?$AA@ 00452bf0     sshpubk.obj
 0002:0000cc08       ??_C@_0BG@EOCPBAKP@PuTTY?9User?9Key?9File?91?$AA@ 00452c08     sshpubk.obj
 0002:0000cc20       ??_C@_0BF@HKENPLNI@PuTTY?9User?9Key?9File?9?$AA@ 00452c20     sshpubk.obj
 0002:0000cc38       ??_C@_0BJ@OMNPKCPH@PuTTY?5key?5format?5too?5new?$AA@ 00452c38     sshpubk.obj
 0002:0000cc54       ??_C@_0BO@KKNFCICD@not?5a?5PuTTY?5SSH?92?5private?5key?$AA@ 00452c54     sshpubk.obj
 0002:0000cc74       ??_C@_0L@PHIJEIHK@Encryption?$AA@ 00452c74     sshpubk.obj
 0002:0000cc80       ??_C@_07JABLCLAF@Comment?$AA@ 00452c80     sshpubk.obj
 0002:0000cc88       ??_C@_0N@PLAKAHPB@Public?9Lines?$AA@ 00452c88     sshpubk.obj
 0002:0000cc98       ??_C@_0O@KIMPDNLC@Private?9Lines?$AA@ 00452c98     sshpubk.obj
 0002:0000cca8       ??_C@_0M@BGCIEHNL@Private?9MAC?$AA@ 00452ca8     sshpubk.obj
 0002:0000ccb4       ??_C@_0N@PAIKAHGK@Private?9Hash?$AA@ 00452cb4     sshpubk.obj
 0002:0000ccc4       ??_C@_04DJNNAIOC@?$AA?$AA?$AA?$AA?$AA@ 00452cc4     sshpubk.obj
 0002:0000cccc       ??_C@_04CAMGDJKD@?$AA?$AA?$AA?$AB?$AA@ 00452ccc     sshpubk.obj
 0002:0000ccd4       ??_C@_0BP@FBPHIKLM@putty?9private?9key?9file?9mac?9key?$AA@ 00452cd4     sshpubk.obj
 0002:0000ccf4       ??_C@_0L@GHCEHEDO@MAC?5failed?$AA@ 00452cf4     sshpubk.obj
 0002:0000cd00       ??_C@_0BB@IEKCJKNA@createkey?5failed?$AA@ 00452d00     sshpubk.obj
 0002:0000cd14       ??_C@_0CB@IHNFHFDO@?9?9?9?9?5BEGIN?5SSH2?5ENCRYPTED?5PRIVAT@ 00452d14     sshpubk.obj
 0002:0000cd38       ??_C@_0M@ILJMFDEM@?9?9?9?9?9BEGIN?5?$AA@ 00452d38     sshpubk.obj
 0002:0000cd44       ??_C@_0BE@FNAAPKHP@unable?5to?5open?5file?$AA@ 00452d44     sshpubk.obj
 0002:0000cd58       ??_C@_0BC@BPEMMLLP@not?5a?5private?5key?$AA@ 00452d58     sshpubk.obj
 0002:0000cd6c       ??_C@_0BC@LONHAMBA@SSH?91?5private?5key?$AA@ 00452d6c     sshpubk.obj
 0002:0000cd80       ??_C@_0BI@FLELEAHO@PuTTY?5SSH?92?5private?5key?$AA@ 00452d80     sshpubk.obj
 0002:0000cd98       ??_C@_0BK@NKGNFJIN@OpenSSH?5SSH?92?5private?5key?$AA@ 00452d98     sshpubk.obj
 0002:0000cdb4       ??_C@_0BK@HBGHADOM@ssh?4com?5SSH?92?5private?5key?$AA@ 00452db4     sshpubk.obj
 0002:0000cdd0       ??_C@_0P@CILKDAIG@INTERNAL?5ERROR?$AA@ 00452dd0     sshpubk.obj
 0002:0000cde0       ??_C@_1BK@JBBHPBNF@?$AA?4?$AA?4?$AA?2?$AAs?$AAs?$AAh?$AAr?$AAa?$AAn?$AAd?$AA?4?$AAc?$AA?$AA@ 00452de0     sshrand.obj
 0002:0000cdfc       ??_C@_1CG@BIPFDMFA@?$AAr?$AAa?$AAn?$AAd?$AAo?$AAm?$AA_?$AAa?$AAc?$AAt?$AAi?$AAv?$AAe?$AA?5?$AA?$DO?$AA?$DN?$AA?5?$AA0?$AA?$AA@ 00452dfc     sshrand.obj
 0002:0000ce38       _ssh_rsa_kex               00452e38     sshrsa.obj
 0002:0000ce40       _ssh_rsa                   00452e40     sshrsa.obj
 0002:0000ced0       ??_C@_04GHCAEBFJ@rsa2?$AA@ 00452ed0     sshrsa.obj
 0002:0000ced8       ??_C@_0N@KOPDGDGF@rsa1024?9sha1?$AA@ 00452ed8     sshrsa.obj
 0002:0000cee8       ??_C@_0P@OJIMEJLA@rsa2048?9sha256?$AA@ 00452ee8     sshrsa.obj
 0002:0000cef8       ??_C@_0BL@OLAJGFFE@RSA?5deterministic?5blinding?$AA@ 00452ef8     sshrsa.obj
 0002:0000cf14       ??_C@_03JDANDILB@?$CFd?5?$AA@ 00452f14     sshrsa.obj
 0002:0000cf18       ??_C@_1BI@DCECBPHA@?$AA?4?$AA?4?$AA?2?$AAs?$AAs?$AAh?$AAr?$AAs?$AAa?$AA?4?$AAc?$AA?$AA@ 00452f18     sshrsa.obj
 0002:0000cf30       ??_C@_0M@CJIFIKOG@?$AA?$AA?$AA?$AHssh?9rsa?$AA@ 00452f30     sshrsa.obj
 0002:0000cf3c       ??_C@_0M@HNJKMIOE@ssh?9rsa?5?$CFd?5?$AA@ 00452f3c     sshrsa.obj
 0002:0000cf48       ??_C@_1DI@JPHLNLFI@?$AA1?$AA?5?$AA?$DM?$AA?$DN?$AA?5?$AAn?$AAb?$AAy?$AAt?$AAe?$AAs?$AA?5?$AA?9?$AA?5?$AA2?$AA0?$AA?5?$AA?9?$AA?5?$AAA?$AAS?$AAN?$AA1?$AA_?$AAL?$AAE?$AAN?$AA?$AA@ 00452f48     sshrsa.obj
 0002:0000cf80       ??_C@_1EC@HPHHCAAH@?$AAh?$AA?9?$AA?$DO?$AAh?$AAl?$AAe?$AAn?$AA?5?$AA?$DM?$AA?$DN?$AA?5?$AAS?$AAS?$AAH?$AA2?$AA_?$AAK?$AAE?$AAX?$AA_?$AAM?$AAA?$AAX?$AA_?$AAH?$AAA?$AAS?$AAH?$AA_?$AAL?$AAE?$AAN@ 00452f80     sshrsa.obj
 0002:0000cfc8       ??_C@_1EK@DAGFADEO@?$AAi?$AAn?$AAl?$AAe?$AAn?$AA?5?$AA?$DO?$AA?5?$AA0?$AA?5?$AA?$CG?$AA?$CG?$AA?5?$AAi?$AAn?$AAl?$AAe?$AAn?$AA?5?$AA?$DM?$AA?$DN?$AA?5?$AAk?$AA?5?$AA?9?$AA?5?$AA2?$AA?$CK?$AAH?$AAL?$AAE?$AAN@ 00452fc8     sshrsa.obj
 0002:0000d014       ??_C@_1BI@MJLCFMLH@?$AAo?$AAu?$AAt?$AAl?$AAe?$AAn?$AA?5?$AA?$DN?$AA?$DN?$AA?5?$AAk?$AA?$AA@ 00453014     sshrsa.obj
 0002:0000d030       _ssh_sha256                00453030     sshsh256.obj
 0002:0000d044       _ssh_hmac_sha256           00453044     sshsh256.obj
 0002:0000d178       ??_C@_07DKFLFLPF@SHA?9256?$AA@ 00453178     sshsh256.obj
 0002:0000d180       ??_C@_0O@HOOBDNEB@hmac?9sha2?9256?$AA@ 00453180     sshsh256.obj
 0002:0000d190       ??_C@_0N@ILKCJLO@HMAC?9SHA?9256?$AA@ 00453190     sshsh256.obj
 0002:0000d460       _ssh_sha1                  00453460     sshsha.obj
 0002:0000d474       _ssh_hmac_sha1             00453474     sshsha.obj
 0002:0000d4a4       _ssh_hmac_sha1_buggy       004534a4     sshsha.obj
 0002:0000d4d4       _ssh_hmac_sha1_96          004534d4     sshsha.obj
 0002:0000d504       _ssh_hmac_sha1_96_buggy    00453504     sshsha.obj
 0002:0000d534       ??_C@_05HJMENKNE@SHA?91?$AA@ 00453534     sshsha.obj
 0002:0000d53c       ??_C@_09KBOMLGBN@hmac?9sha1?$AA@ 0045353c     sshsha.obj
 0002:0000d548       ??_C@_09DDFKKHO@HMAC?9SHA1?$AA@ 00453548     sshsha.obj
 0002:0000d554       ??_C@_0N@PPCDKPGG@hmac?9sha1?996?$AA@ 00453554     sshsha.obj
 0002:0000d564       ??_C@_0N@KMMKONJA@HMAC?9SHA1?996?$AA@ 00453564     sshsha.obj
 0002:0000d574       ??_C@_0BJ@MDIAIHM@bug?9compatible?5HMAC?9SHA1?$AA@ 00453574     sshsha.obj
 0002:0000d590       ??_C@_0BM@ENMOJLCH@bug?9compatible?5HMAC?9SHA1?996?$AA@ 00453590     sshsha.obj
 0002:0000d988       _ssh_zlib                  00453988     sshzlib.obj
 0002:0000d9b0       ??_C@_04OLICEBLN@zlib?$AA@ 004539b0     sshzlib.obj
 0002:0000d9b8       ??_C@_0BB@MCFAHMIB@zlib?$EAopenssh?4com?$AA@ 004539b8     sshzlib.obj
 0002:0000d9cc       ??_C@_0P@HKDEBKBN@zlib?5?$CIRFC1950?$CJ?$AA@ 004539cc     sshzlib.obj
 0002:0000d9dc       ??_C@_1BK@BIFCPMPD@?$AA?4?$AA?4?$AA?2?$AAs?$AAs?$AAh?$AAz?$AAl?$AAi?$AAb?$AA?4?$AAc?$AA?$AA@ 004539dc     sshzlib.obj
 0002:0000d9f8       ??_C@_1DI@EBPDFNOF@?$AAo?$AAu?$AAt?$AA?9?$AA?$DO?$AAn?$AAo?$AAu?$AAt?$AAb?$AAi?$AAt?$AAs?$AA?5?$AA?$CL?$AA?5?$AAn?$AAb?$AAi?$AAt?$AAs?$AA?5?$AA?$DM?$AA?$DN?$AA?5?$AA3?$AA2?$AA?$AA@ 004539f8     sshzlib.obj
 0002:0000da30       ??_C@_1CI@PIMGKCFE@?$AA?$CB?$AAo?$AAu?$AAt?$AA?9?$AA?$DO?$AAc?$AAo?$AAm?$AAp?$AA_?$AAd?$AAi?$AAs?$AAa?$AAb?$AAl?$AAe?$AAd?$AA?$AA@ 00453a30     sshzlib.obj
 0002:0000da58       ??_C@_1BG@COPMCGJM@?$AAj?$AA?5?$AA?9?$AA?5?$AAi?$AA?5?$AA?$DO?$AA?$DN?$AA?5?$AA2?$AA?$AA@ 00453a58     sshzlib.obj
 0002:0000da70       ??_C@_1BK@MHBNEDJA@?$AA?4?$AA?4?$AA?2?$AAt?$AAr?$AAe?$AAe?$AA2?$AA3?$AA4?$AA?4?$AAc?$AA?$AA@ 00453a70     tree234.obj
 0002:0000da90       ??_C@_1FO@OBPIOPIL@?$AAr?$AAe?$AAl?$AAa?$AAt?$AAi?$AAo?$AAn?$AA?5?$AA?$DN?$AA?$DN?$AA?5?$AAR?$AAE?$AAL?$AA2?$AA3?$AA4?$AA_?$AAL?$AAT?$AA?5?$AA?$HM?$AA?$HM?$AA?5?$AAr?$AAe?$AAl?$AAa?$AAt?$AAi?$AAo@ 00453a90     tree234.obj
 0002:0000daf0       ??_C@_1BM@PINLEPKJ@?$AA?4?$AA?4?$AA?2?$AAw?$AAi?$AAl?$AAd?$AAc?$AAa?$AAr?$AAd?$AA?4?$AAc?$AA?$AA@ 00453af0     wildcard.obj
 0002:0000db0c       ??_C@_1CC@PPJJLGIB@?$AA?$CK?$AAw?$AAi?$AAl?$AAd?$AAc?$AAa?$AAr?$AAd?$AA?5?$AA?$DN?$AA?$DN?$AA?5?$AA?8?$AA?$CK?$AA?8?$AA?$AA@ 00453b0c     wildcard.obj
 0002:0000e5c0       ??_C@_0BJE@EDHPMEEK@These?5are?5the?5fingerprints?5of?5th@ 004545c0     wincons.obj
 0002:0000e754       ??_C@_0CC@LOBNMDGO@Cannot?5get?5standard?5input?5handle@ 00454754     wincons.obj
 0002:0000e778       ??_C@_0CD@FBGFOPPM@Cannot?5get?5standard?5output?5handl@ 00454778     wincons.obj
 0002:0000e79c       ??_C@_0M@KGGAJAJ@Courier?5New?$AA@ 0045479c     windefs.obj
 0002:0000e7a8       ??_C@_09CKCOALHD@putty?4log?$AA@ 004547a8     windefs.obj
 0002:0000e7b4       ??_C@_04FLOGHLDB@COM1?$AA@ 004547b4     windefs.obj
 0002:0000e7bc       ??_C@_0BK@KMMBPEJK@MIT?5Kerberos?5GSSAPI32?4DLL?$AA@ 004547bc     wingss.obj
 0002:0000e7d8       ??_C@_0BL@NLDLBALN@Microsoft?5SSPI?5SECUR32?4DLL?$AA@ 004547d8     wingss.obj
 0002:0000e7f4       ??_C@_0BK@JKANBDKL@User?9specified?5GSSAPI?5DLL?$AA@ 004547f4     wingss.obj
 0002:0000e810       ??_C@_08GJKCNAPI@gssapi32?$AA@ 00454810     wingss.obj
 0002:0000e81c       ??_C@_04BOOLCFDB@sspi?$AA@ 0045481c     wingss.obj
 0002:0000e824       ??_C@_06EKNFNOKI@custom?$AA@ 00454824     wingss.obj
 0002:0000e82c       _gss_mech_krb5             0045482c     wingss.obj
 0002:0000e834       _ngsslibs                  00454834     wingss.obj
 0002:0000e838       _gsslibnames               00454838     wingss.obj
 0002:0000e844       _gsslibkeywords            00454844     wingss.obj
 0002:0000e874       ??_C@_0BG@LGNPILGP@SOFTWARE?2MIT?2Kerberos?$AA@ 00454874     wingss.obj
 0002:0000e88c       ??_C@_0L@FHCLALEN@InstallDir?$AA@ 0045488c     wingss.obj
 0002:0000e898       ??_C@_0BC@CFNMHEDK@?2bin?2gssapi32?4dll?$AA@ 00454898     wingss.obj
 0002:0000e8ac       ??_C@_0BP@CAAICPPD@Using?5GSSAPI?5from?5GSSAPI32?4DLL?$AA@ 004548ac     wingss.obj
 0002:0000e8cc       ??_C@_0BH@LPGCAHBE@gss_delete_sec_context?$AA@ 004548cc     wingss.obj
 0002:0000e8e4       ??_C@_0BD@HAHCAGLP@gss_display_status?$AA@ 004548e4     wingss.obj
 0002:0000e8f8       ??_C@_0M@OGHPACOB@gss_get_mic?$AA@ 004548f8     wingss.obj
 0002:0000e904       ??_C@_0BA@NFJGAFDA@gss_import_name?$AA@ 00454904     wingss.obj
 0002:0000e914       ??_C@_0BF@GKGBCAOB@gss_init_sec_context?$AA@ 00454914     wingss.obj
 0002:0000e92c       ??_C@_0BD@NOBAANHB@gss_release_buffer?$AA@ 0045492c     wingss.obj
 0002:0000e940       ??_C@_0BB@OPJGOMFI@gss_release_cred?$AA@ 00454940     wingss.obj
 0002:0000e954       ??_C@_0BB@ECKCLAGB@gss_release_name?$AA@ 00454954     wingss.obj
 0002:0000e968       ??_C@_0M@KOFABFN@secur32?4dll?$AA@ 00454968     wingss.obj
 0002:0000e974       ??_C@_0BM@BNCKPIJL@Using?5SSPI?5from?5SECUR32?4DLL?$AA@ 00454974     wingss.obj
 0002:0000e990       ??_C@_0BK@KPHFEPAJ@AcquireCredentialsHandleA?$AA@ 00454990     wingss.obj
 0002:0000e9ac       ??_C@_0BL@GGJLPDDN@InitializeSecurityContextA?$AA@ 004549ac     wingss.obj
 0002:0000e9c8       ??_C@_0BC@LCABLLAA@FreeContextBuffer?$AA@ 004549c8     wingss.obj
 0002:0000e9dc       ??_C@_0BG@DAGPLFON@FreeCredentialsHandle?$AA@ 004549dc     wingss.obj
 0002:0000e9f4       ??_C@_0BG@LNIAGFEF@DeleteSecurityContext?$AA@ 004549f4     wingss.obj
 0002:0000ea0c       ??_C@_0BI@MJIBHNH@QueryContextAttributesA?$AA@ 00454a0c     wingss.obj
 0002:0000ea24       ??_C@_0O@MIBINBJ@MakeSignature?$AA@ 00454a24     wingss.obj
 0002:0000ea34       ??_C@_0CO@KKKGLNAB@Using?5GSSAPI?5from?5user?9specified@ 00454a34     wingss.obj
 0002:0000ea64       ??_C@_05IJJGMEGE@host?1?$AA@ 00454a64     wingss.obj
 0002:0000ea6c       ??_C@_08DEIMIBAF@Kerberos?$AA@ 00454a6c     wingss.obj
 0002:0000ea78       ??_C@_0P@FHMNKEON@SSPI?5status?5OK?$AA@ 00454a78     wingss.obj
 0002:0000ea88       ??_C@_0CO@MFICPPLA@The?5handle?5passed?5to?5the?5functio@ 00454a88     wingss.obj
 0002:0000eab8       ??_C@_0BP@GBCPMANM@The?5target?5was?5not?5recognized?4?$AA@ 00454ab8     wingss.obj
 0002:0000ead8       ??_C@_0BC@EIFLKHH@The?5logon?5failed?4?$AA@ 00454ad8     wingss.obj
 0002:0000eaec       ??_C@_0DC@FMMLCEMD@The?5Local?5Security?5Authority?5can@ 00454aec     wingss.obj
 0002:0000eb20       ??_C@_0DG@GKAFKGBA@No?5credentials?5are?5available?5in?5@ 00454b20     wingss.obj
 0002:0000eb58       ??_C@_0MH@NCDMEMJK@No?5authority?5could?5be?5contacted?5@ 00454b58     wingss.obj
 0002:0000ec20       ??_C@_0GH@FPFDJCGO@One?5or?5more?5of?5the?5SecBufferDesc@ 00454c20     wingss.obj
 0002:0000ec88       ??_C@_0BBF@KLMJLMFM@The?5error?5is?5due?5to?5a?5malformed?5@ 00454c88     wingss.obj
 0002:0000eda0       ??_C@_0BE@JBOILFGC@Internal?5SSPI?5error?$AA@ 00454da0     wingss.obj
 0002:0000edb4       ??_C@_1CM@DMBHPOBD@?$AA?4?$AA?4?$AA?2?$AAw?$AAi?$AAn?$AAd?$AAo?$AAw?$AAs?$AA?2?$AAw?$AAi?$AAn?$AAh?$AAa?$AAn?$AAd?$AAl?$AA?4?$AAc?$AA?$AA@ 00454db4     winhandl.obj
 0002:0000ede0       ??_C@_1BE@LHGCFELO@?$AAh?$AA?9?$AA?$DO?$AAo?$AAu?$AAt?$AAp?$AAu?$AAt?$AA?$AA@ 00454de0     winhandl.obj
 0002:0000edf4       ??_C@_1DK@HEEPBBDK@?$AAh?$AA?9?$AA?$DO?$AAu?$AA?4?$AAo?$AA?4?$AAo?$AAu?$AAt?$AAg?$AAo?$AAi?$AAn?$AAg?$AAe?$AAo?$AAf?$AA?5?$AA?$DN?$AA?$DN?$AA?5?$AAE?$AAO?$AAF?$AA_?$AAN?$AAO?$AA?$AA@ 00454df4     winhandl.obj
 0002:0000ee30       ??_C@_1CM@IGACHAOA@?$AAh?$AA?5?$AA?$CG?$AA?$CG?$AA?5?$AA?$CB?$AAh?$AA?9?$AA?$DO?$AAu?$AA?4?$AAg?$AA?4?$AAm?$AAo?$AAr?$AAi?$AAb?$AAu?$AAn?$AAd?$AA?$AA@ 00454e30     winhandl.obj
 0002:0000ee5c       ??_C@_1CI@COHIDNHF@?$AAh?$AAa?$AAn?$AAd?$AAl?$AAe?$AAs?$AA_?$AAb?$AAy?$AA_?$AAe?$AAv?$AAt?$AAo?$AAm?$AAa?$AAi?$AAn?$AA?$AA@ 00454e5c     winhandl.obj
 0002:0000ee84       ??_C@_07JPHDIPNG@DISPLAY?$AA@ 00454e84     winmisc.obj
 0002:0000ee8c       ??_C@_0P@MKECNODE@GetUserNameExA?$AA@ 00454e8c     winmisc.obj
 0002:0000ee9c       ??_C@_01KICIPPFI@?2?$AA@   00454e9c     winmisc.obj
 0002:0000eea0       _in6addr_any               00454ea0     winnet.obj
 0002:0000eeb0       _in6addr_loopback          00454eb0     winnet.obj
 0002:0000ef38       ??_C@_0L@EANHMAHB@ws2_32?4dll?$AA@ 00454f38     winnet.obj
 0002:0000ef44       ??_C@_0M@OJLCMFNP@wsock32?4dll?$AA@ 00454f44     winnet.obj
 0002:0000ef50       ??_C@_0CD@JNHCILKG@Unable?5to?5load?5any?5WinSock?5libra@ 00454f50     winnet.obj
 0002:0000ef74       ??_C@_0M@MBIPAJOD@getaddrinfo?$AA@ 00454f74     winnet.obj
 0002:0000ef80       ??_C@_0N@EHOPPMLH@freeaddrinfo?$AA@ 00454f80     winnet.obj
 0002:0000ef90       ??_C@_0M@NNJNLPKG@getnameinfo?$AA@ 00454f90     winnet.obj
 0002:0000ef9c       ??_C@_0N@INCGEDCE@gai_strerror?$AA@ 00454f9c     winnet.obj
 0002:0000efac       ??_C@_0L@KHLHMJB@wship6?4dll?$AA@ 00454fac     winnet.obj
 0002:0000efb8       ??_C@_0BE@OCOIJKMB@WSAAddressToStringA?$AA@ 00454fb8     winnet.obj
 0002:0000efcc       ??_C@_0P@BBKGBEDM@WSAAsyncSelect?$AA@ 00454fcc     winnet.obj
 0002:0000efdc       ??_C@_0P@CIBLNKFF@WSAEventSelect?$AA@ 00454fdc     winnet.obj
 0002:0000efec       ??_C@_06LGNCCACI@select?$AA@ 00454fec     winnet.obj
 0002:0000eff4       ??_C@_0BA@ONBHHGGB@WSAGetLastError?$AA@ 00454ff4     winnet.obj
 0002:0000f004       ??_C@_0BF@PDMHDGHF@WSAEnumNetworkEvents?$AA@ 00455004     winnet.obj
 0002:0000f01c       ??_C@_0L@EEFLCHHA@WSAStartup?$AA@ 0045501c     winnet.obj
 0002:0000f028       ??_C@_0L@OPKENMEN@WSACleanup?$AA@ 00455028     winnet.obj
 0002:0000f034       ??_C@_0M@ODDJDCDK@closesocket?$AA@ 00455034     winnet.obj
 0002:0000f040       ??_C@_05JMFICPBP@ntohl?$AA@ 00455040     winnet.obj
 0002:0000f048       ??_C@_05EOIMLALA@htonl?$AA@ 00455048     winnet.obj
 0002:0000f050       ??_C@_05IDNGLOCO@htons?$AA@ 00455050     winnet.obj
 0002:0000f058       ??_C@_05FBACCBIB@ntohs?$AA@ 00455058     winnet.obj
 0002:0000f060       ??_C@_0M@FIJPCJJO@gethostname?$AA@ 00455060     winnet.obj
 0002:0000f06c       ??_C@_0O@BFBCKHPD@gethostbyname?$AA@ 0045506c     winnet.obj
 0002:0000f07c       ??_C@_0O@NKLJGHIL@getservbyname?$AA@ 0045507c     winnet.obj
 0002:0000f08c       ??_C@_09JKBDEEOB@inet_addr?$AA@ 0045508c     winnet.obj
 0002:0000f098       ??_C@_09CFOACKNM@inet_ntoa?$AA@ 00455098     winnet.obj
 0002:0000f0a4       ??_C@_07KAIBNCHO@connect?$AA@ 004550a4     winnet.obj
 0002:0000f0ac       ??_C@_04NPNJNMMP@bind?$AA@ 004550ac     winnet.obj
 0002:0000f0b4       ??_C@_0L@CKHNIFCM@setsockopt?$AA@ 004550b4     winnet.obj
 0002:0000f0c0       ??_C@_06HBELJPBO@socket?$AA@ 004550c0     winnet.obj
 0002:0000f0c8       ??_C@_06OODDLKLE@listen?$AA@ 004550c8     winnet.obj
 0002:0000f0d0       ??_C@_04MIIPNNEF@send?$AA@ 004550d0     winnet.obj
 0002:0000f0d8       ??_C@_08FIACBBDA@shutdown?$AA@ 004550d8     winnet.obj
 0002:0000f0e4       ??_C@_0M@PBPOCKDG@ioctlsocket?$AA@ 004550e4     winnet.obj
 0002:0000f0f0       ??_C@_06MPKMECK@accept?$AA@ 004550f0     winnet.obj
 0002:0000f0f8       ??_C@_04IFMDBHHF@recv?$AA@ 004550f8     winnet.obj
 0002:0000f100       ??_C@_08LGAGEKPE@WSAIoctl?$AA@ 00455100     winnet.obj
 0002:0000f10c       ??_C@_0BN@GHGODND@Unable?5to?5initialise?5WinSock?$AA@ 0045510c     winnet.obj
 0002:0000f12c       ??_C@_0BA@MMABGDAG@Network?5error?3?5?$AA@ 0045512c     winnet.obj
 0002:0000f13c       ??_C@_0CB@LEIDGBB@Network?5error?3?5Permission?5denied@ 0045513c     winnet.obj
 0002:0000f160       ??_C@_0CG@LOMEHGFM@Network?5error?3?5Address?5already?5i@ 00455160     winnet.obj
 0002:0000f188       ??_C@_0CP@HDJDEAEC@Network?5error?3?5Cannot?5assign?5req@ 00455188     winnet.obj
 0002:0000f1b8       ??_C@_0DP@JGJJHDKC@Network?5error?3?5Address?5family?5no@ 004551b8     winnet.obj
 0002:0000f1f8       ??_C@_0CN@KMKLCFOC@Network?5error?3?5Operation?5already@ 004551f8     winnet.obj
 0002:0000f228       ??_C@_0DA@IKOBCIKC@Network?5error?3?5Software?5caused?5c@ 00455228     winnet.obj
 0002:0000f258       ??_C@_0CC@LLCJMKHD@Network?5error?3?5Connection?5refuse@ 00455258     winnet.obj
 0002:0000f27c       ??_C@_0CI@GILKBBEO@Network?5error?3?5Connection?5reset?5@ 0045527c     winnet.obj
 0002:0000f2a4       ??_C@_0CM@PENHJLO@Network?5error?3?5Destination?5addre@ 004552a4     winnet.obj
 0002:0000f2d0       ??_C@_0BL@NCHKLIAI@Network?5error?3?5Bad?5address?$AA@ 004552d0     winnet.obj
 0002:0000f2ec       ??_C@_0BM@IAFOJGID@Network?5error?3?5Host?5is?5down?$AA@ 004552ec     winnet.obj
 0002:0000f308       ??_C@_0CA@NJIIBGPN@Network?5error?3?5No?5route?5to?5host?$AA@ 00455308     winnet.obj
 0002:0000f328       ??_C@_0CJ@PBCDILHG@Network?5error?3?5Operation?5now?5in?5@ 00455328     winnet.obj
 0002:0000f354       ??_C@_0CJ@BJPALIGK@Network?5error?3?5Interrupted?5funct@ 00455354     winnet.obj
 0002:0000f380       ??_C@_0CA@FAPGIABL@Network?5error?3?5Invalid?5argument?$AA@ 00455380     winnet.obj
 0002:0000f3a0       ??_C@_0CL@CNIGAACP@Network?5error?3?5Socket?5is?5already@ 004553a0     winnet.obj
 0002:0000f3cc       ??_C@_0CD@LPKFLDLA@Network?5error?3?5Too?5many?5open?5fil@ 004553cc     winnet.obj
 0002:0000f3f0       ??_C@_0CA@PPJKNKCC@Network?5error?3?5Message?5too?5long?$AA@ 004553f0     winnet.obj
 0002:0000f410       ??_C@_0BP@PGLOJAPE@Network?5error?3?5Network?5is?5down?$AA@ 00455410     winnet.obj
 0002:0000f430       ??_C@_0DD@NLBNMNIN@Network?5error?3?5Network?5dropped?5c@ 00455430     winnet.obj
 0002:0000f464       ??_C@_0CG@JNGAGLPE@Network?5error?3?5Network?5is?5unreac@ 00455464     winnet.obj
 0002:0000f48c       ??_C@_0CJ@KCOJNBBA@Network?5error?3?5No?5buffer?5space?5a@ 0045548c     winnet.obj
 0002:0000f4b8       ??_C@_0CD@OGNOEADL@Network?5error?3?5Bad?5protocol?5opti@ 004554b8     winnet.obj
 0002:0000f4dc       ??_C@_0CH@FDLGGEDH@Network?5error?3?5Socket?5is?5not?5con@ 004554dc     winnet.obj
 0002:0000f504       ??_C@_0CO@EGCFOHNE@Network?5error?3?5Socket?5operation?5@ 00455504     winnet.obj
 0002:0000f534       ??_C@_0CH@JLCIHOGJ@Network?5error?3?5Operation?5not?5sup@ 00455534     winnet.obj
 0002:0000f55c       ??_C@_0CN@PBIIOGDK@Network?5error?3?5Protocol?5family?5n@ 0045555c     winnet.obj
 0002:0000f58c       ??_C@_0CC@GPOCLDNA@Network?5error?3?5Too?5many?5processe@ 0045558c     winnet.obj
 0002:0000f5b0       ??_C@_0CG@CIDEMPKB@Network?5error?3?5Protocol?5not?5supp@ 004555b0     winnet.obj
 0002:0000f5d8       ??_C@_0CO@HHKHFFCH@Network?5error?3?5Protocol?5wrong?5ty@ 004555d8     winnet.obj
 0002:0000f608       ??_C@_0DB@FALABHLP@Network?5error?3?5Cannot?5send?5after@ 00455608     winnet.obj
 0002:0000f63c       ??_C@_0CJ@ELCODKEL@Network?5error?3?5Socket?5type?5not?5s@ 0045563c     winnet.obj
 0002:0000f668       ??_C@_0CE@OOJFMNCL@Network?5error?3?5Connection?5timed?5@ 00455668     winnet.obj
 0002:0000f68c       ??_C@_0DA@MGCLKFJF@Network?5error?3?5Resource?5temporar@ 0045568c     winnet.obj
 0002:0000f6bc       ??_C@_0CN@DLPPJFKK@Network?5error?3?5Graceful?5shutdown@ 004556bc     winnet.obj
 0002:0000f6ec       ??_C@_0DG@PKDFIONF@Windows?5error?5code?5?$CFd?5?$CIand?5Forma@ 004556ec     winnet.obj
 0002:0000f724       ??_C@_0BA@LPIEBGEK@Network?5is?5down?$AA@ 00455724     winnet.obj
 0002:0000f734       ??_C@_0BE@OGOKFANL@Host?5does?5not?5exist?$AA@ 00455734     winnet.obj
 0002:0000f748       ??_C@_0P@CAFMJNJH@Host?5not?5found?$AA@ 00455748     winnet.obj
 0002:0000f758       ??_C@_0BN@IECEODIK@gethostbyname?3?5unknown?5error?$AA@ 00455758     winnet.obj
 0002:0000f778       ??_C@_09EEKGDCPH@?$DMunknown?$DO?$AA@ 00455778     winnet.obj
 0002:0000f784       ??_C@_1CI@IHIJOICM@?$AA?4?$AA?4?$AA?2?$AAw?$AAi?$AAn?$AAd?$AAo?$AAw?$AAs?$AA?2?$AAw?$AAi?$AAn?$AAn?$AAe?$AAt?$AA?4?$AAc?$AA?$AA@ 00455784     winnet.obj
 0002:0000f7b0       ??_C@_1GI@PFKEGLFL@?$AAa?$AAd?$AAd?$AAr?$AA?9?$AA?$DO?$AAa?$AAd?$AAd?$AAr?$AAe?$AAs?$AAs?$AAe?$AAs?$AA?5?$AA?$CG?$AA?$CG?$AA?5?$AAs?$AAt?$AAe?$AAp?$AA?4?$AAc?$AAu?$AAr?$AAr?$AAa?$AAd?$AAd?$AAr@ 004557b0     winnet.obj
 0002:0000f818       ??_C@_03KOIMFPNC@?3?31?$AA@ 00455818     winnet.obj
 0002:0000f81c       ??_C@_04NFJNFDMH@127?4?$AA@ 0045581c     winnet.obj
 0002:0000f824       ??_C@_0CJ@OHBOLOPA@Unable?5to?5get?5list?5of?5local?5IP?5a@ 00455824     winnet.obj
 0002:0000f850       ??_C@_1CI@ICIGJHFJ@?$AAf?$AAa?$AAm?$AAi?$AAl?$AAy?$AA?5?$AA?$DN?$AA?$DN?$AA?5?$AAA?$AAF?$AA_?$AAU?$AAN?$AAS?$AAP?$AAE?$AAC?$AA?$AA@ 00455850     winnet.obj
 0002:0000f878       ??_C@_1CI@FHGJHHED@?$AAf?$AAa?$AAm?$AAi?$AAl?$AAy?$AA?5?$AA?$CB?$AA?$DN?$AA?5?$AAA?$AAF?$AA_?$AAU?$AAN?$AAS?$AAP?$AAE?$AAC?$AA?$AA@ 00455878     winnet.obj
 0002:0000f8a0       ??_C@_1M@HCOOECOK@?$AAF?$AAA?$AAL?$AAS?$AAE?$AA?$AA@ 004558a0     winnet.obj
 0002:0000f8b0       ??_C@_1IM@GJHBFPNE@?$AAs?$AAo?$AAc?$AAk?$AA?9?$AA?$DO?$AAa?$AAd?$AAd?$AAr?$AA?9?$AA?$DO?$AAa?$AAd?$AAd?$AAr?$AAe?$AAs?$AAs?$AAe?$AAs?$AA?5?$AA?$CG?$AA?$CG?$AA?5?$AAs?$AAo?$AAc?$AAk?$AA?9?$AA?$DO?$AAs@ 004558b0     winnet.obj
 0002:0000f93c       ??_C@_1DC@KAMAOOE@?$AAs?$AA?9?$AA?$DO?$AAo?$AAu?$AAt?$AAg?$AAo?$AAi?$AAn?$AAg?$AAe?$AAo?$AAf?$AA?5?$AA?$DN?$AA?$DN?$AA?5?$AAE?$AAO?$AAF?$AA_?$AAN?$AAO?$AA?$AA@ 0045593c     winnet.obj
 0002:0000f970       ??_C@_1DE@IPMJEMIB@?$AAl?$AAe?$AAn?$AA?5?$AA?$DM?$AA?$DN?$AA?5?$AAs?$AAi?$AAz?$AAe?$AAo?$AAf?$AA?$CI?$AAs?$AA?9?$AA?$DO?$AAo?$AAo?$AAb?$AAd?$AAa?$AAt?$AAa?$AA?$CJ?$AA?$AA@ 00455970     winnet.obj
 0002:0000f9a4       ??_C@_0BM@HEOLBEK@Internal?5networking?5trouble?$AA@ 004559a4     winnet.obj
 0002:0000f9c0       ??_C@_0CM@FPGHHHHA@unix?5sockets?5not?5supported?5on?5th@ 004559c0     winnet.obj
 0002:0000f9ec       ??_C@_02KHDDNBB@?2?$CK?$AA@ 004559ec     winnoise.obj
 0002:0000f9f0       ??_C@_07CMJJJJGA@Pageant?$AA@ 004559f0     winpgntc.obj
 0002:0000f9f8       ??_C@_0N@INAGJMNN@advapi32?4dll?$AA@ 004559f8     winpgntc.obj
 0002:0000fa08       ??_C@_0BA@JKIAABFB@GetSecurityInfo?$AA@ 00455a08     winpgntc.obj
 0002:0000fa18       ??_C@_0BB@EANJDCJP@OpenProcessToken?$AA@ 00455a18     winpgntc.obj
 0002:0000fa2c       ??_C@_0BE@JIDLIKOL@GetTokenInformation?$AA@ 00455a2c     winpgntc.obj
 0002:0000fa40       ??_C@_0BN@FNLANPJJ@InitializeSecurityDescriptor?$AA@ 00455a40     winpgntc.obj
 0002:0000fa60       ??_C@_0BL@OJAFMLIK@SetSecurityDescriptorOwner?$AA@ 00455a60     winpgntc.obj
 0002:0000fa7c       ??_C@_0BD@BGFFBEAP@PageantRequest?$CF08x?$AA@ 00455a7c     winpgntc.obj
 0002:0000fab8       ??_C@_0CE@KEABDJFG@Read?5error?5from?5local?5proxy?5comm@ 00455ab8     winproxy.obj
 0002:0000fadc       ??_C@_0CB@OINICMIG@Starting?5local?5proxy?5command?3?5?$CFs@ 00455adc     winproxy.obj
 0002:0000fb00       ??_C@_0CJ@LOPKPCOD@Unable?5to?5create?5pipes?5for?5proxy@ 00455b00     winproxy.obj
 0002:0000fb5c       _platform_uses_x11_unix_by_default 00455b5c     winsftp.obj
 0002:0000fb60       ??_C@_02FMMEOLBI@?1?$CK?$AA@ 00455b60     winsftp.obj
 0002:0000fb64       ??_C@_1CK@OLMPLIAB@?$AA?4?$AA?4?$AA?2?$AAw?$AAi?$AAn?$AAd?$AAo?$AAw?$AAs?$AA?2?$AAw?$AAi?$AAn?$AAs?$AAf?$AAt?$AAp?$AA?4?$AAc?$AA?$AA@ 00455b64     winsftp.obj
 0002:0000fb90       ??_C@_1BE@DKLGFLDL@?$AAd?$AAi?$AAr?$AA?9?$AA?$DO?$AAn?$AAa?$AAm?$AAe?$AA?$AA@ 00455b90     winsftp.obj
 0002:0000fba4       ??_C@_0CA@JLPGHJO@WSAEventSelect?$CI?$CJ?3?5unknown?5error?$AA@ 00455ba4     winsftp.obj
 0002:0000fbe0       ??_C@_0CE@BPBAEMAL@Software?2SimonTatham?2PuTTY?2Jumpl@ 00455be0     winstore.obj
 0002:0000fc04       ??_C@_0BA@LOIOCGKN@Recent?5sessions?$AA@ 00455c04     winstore.obj
 0002:0000fc14       ??_C@_0CE@GEIJGKHP@Software?2SimonTatham?2PuTTY?2Sessi@ 00455c14     winstore.obj
 0002:0000fc38       ??_C@_06DPJMBPNP@IsBold?$AA@ 00455c38     winstore.obj
 0002:0000fc40       ??_C@_07BJNLJNDP@CharSet?$AA@ 00455c40     winstore.obj
 0002:0000fc48       ??_C@_06HCAKHJJK@Height?$AA@ 00455c48     winstore.obj
 0002:0000fc50       ??_C@_01EOFPKCAF@?$EA?$AA@ 00455c50     winstore.obj
 0002:0000fc54       ??_C@_03CDCAMCGK@?$CFd?3?$AA@ 00455c54     winstore.obj
 0002:0000fc58       ??_C@_0CH@GHHFOOGE@Software?2SimonTatham?2PuTTY?2SshHo@ 00455c58     winstore.obj
 0002:0000fc80       ??_C@_0BL@PHBGIKKP@Software?2SimonTatham?2PuTTY?$AA@ 00455c80     winstore.obj
 0002:0000fc9c       ??_C@_0N@KBOBEHLA@RandSeedFile?$AA@ 00455c9c     winstore.obj
 0002:0000fcac       ??_C@_0M@KFDNOLCO@shell32?4dll?$AA@ 00455cac     winstore.obj
 0002:0000fcb8       ??_C@_0BB@IHMEONLD@SHGetFolderPathA?$AA@ 00455cb8     winstore.obj
 0002:0000fccc       ??_C@_0L@LLJOJGKB@?2PUTTY?4RND?$AA@ 00455ccc     winstore.obj
 0002:0000fcd8       ??_C@_09OBKBLLMN@HOMEDRIVE?$AA@ 00455cd8     winstore.obj
 0002:0000fce4       ??_C@_08LOOGKGJL@HOMEPATH?$AA@ 00455ce4     winstore.obj
 0002:0000fcf4       _x11_authnames             00455cf4     x11fwd.obj
 0002:0000fd28       ??_C@_0BD@IHNBGCAI@MIT?9MAGIC?9COOKIE?91?$AA@ 00455d28     x11fwd.obj
 0002:0000fd3c       ??_C@_0BE@CHBJIAMK@XDM?9AUTHORIZATION?91?$AA@ 00455d3c     x11fwd.obj
 0002:0000fd50       ??_C@_02PGAEHAFI@?30?$AA@  00455d50     x11fwd.obj
 0002:0000fd54       ??_C@_04HDPGOEDM@unix?$AA@ 00455d54     x11fwd.obj
 0002:0000fd5c       ??_C@_07ODDMEPCL@unix?3?$CFd?$AA@ 00455d5c     x11fwd.obj
 0002:0000fd64       ??_C@_1BI@KBADPDMH@?$AA?4?$AA?4?$AA?2?$AAx?$AA1?$AA1?$AAf?$AAw?$AAd?$AA?4?$AAc?$AA?$AA@ 00455d64     x11fwd.obj
 0002:0000fd7c       ??_C@_1CI@DCFBGJCA@?$AAa?$AAu?$AAt?$AAh?$AAt?$AAy?$AAp?$AAe?$AA?5?$AA?$DN?$AA?$DN?$AA?5?$AAX?$AA1?$AA1?$AA_?$AAX?$AAD?$AAM?$AA?$AA@ 00455d7c     x11fwd.obj
 0002:0000fda4       ??_C@_0CH@LIBFIJN@wrong?5authorisation?5protocol?5att@ 00455da4     x11fwd.obj
 0002:0000fdcc       ??_C@_0CJ@BEICPPFH@MIT?9MAGIC?9COOKIE?91?5data?5was?5wron@ 00455dcc     x11fwd.obj
 0002:0000fdf8       ??_C@_0CG@KMAKBAKF@MIT?9MAGIC?9COOKIE?91?5data?5did?5not?5@ 00455df8     x11fwd.obj
 0002:0000fe20       ??_C@_0CK@HFGIDIOE@XDM?9AUTHORIZATION?91?5data?5was?5wro@ 00455e20     x11fwd.obj
 0002:0000fe4c       ??_C@_0DK@FKIJBPCP@cannot?5do?5XDM?9AUTHORIZATION?91?5wi@ 00455e4c     x11fwd.obj
 0002:0000fe88       ??_C@_0CG@CMMOMN@XDM?9AUTHORIZATION?91?5data?5failed?5@ 00455e88     x11fwd.obj
 0002:0000feb0       ??_C@_0CP@KPOKENFM@XDM?9AUTHORIZATION?91?5time?5stamp?5w@ 00455eb0     x11fwd.obj
 0002:0000fee0       ??_C@_1CM@EAFEEEKO@?$AAd?$AAi?$AAs?$AAp?$AA?9?$AA?$DO?$AAx?$AAd?$AAm?$AAs?$AAe?$AAe?$AAn?$AA?5?$AA?$CB?$AA?$DN?$AA?5?$AAN?$AAU?$AAL?$AAL?$AA?$AA@ 00455ee0     x11fwd.obj
 0002:0000ff0c       ??_C@_0CC@JBPDCLHH@XDM?9AUTHORIZATION?91?5data?5replaye@ 00455f0c     x11fwd.obj
 0002:0000ff30       ??_C@_1BK@JIHFHIDO@?$AAs?$AAe?$AAe?$AAn?$AA?5?$AA?$CB?$AA?$DN?$AA?5?$AAN?$AAU?$AAL?$AAL?$AA?$AA@ 00455f30     x11fwd.obj
 0002:0000ff4c       ??_C@_0BB@PGJBECEC@?$CFs?5X11?5proxy?3?5?$CFs?$AA@ 00455f4c     x11fwd.obj
 0002:0000ff60       ??_C@_1GE@MAGNCPLO@?$AAp?$AAr?$AA?9?$AA?$DO?$AAd?$AAi?$AAs?$AAp?$AA?9?$AA?$DO?$AAl?$AAo?$AAc?$AAa?$AAl?$AAa?$AAu?$AAt?$AAh?$AAd?$AAa?$AAt?$AAa?$AAl?$AAe?$AAn?$AA?5?$AA?$DM?$AA?$DN?$AA?5?$AAl?$AAe@ 00455f60     x11fwd.obj
 0002:0000ffc4       ??_C@_17LGKOMLJ@?$AA?4?$AA?4?$AA?4?$AA?$AA@ 00455fc4     LIBCMT:wassert.obj
 0002:0000ffcc       ??_C@_13LBAGMAIH@?$AA?6?$AA?$AA@ 00455fcc     LIBCMT:wassert.obj
 0002:0000ffd0       ??_C@_15IABLJNFO@?$AA?6?$AA?6?$AA?$AA@ 00455fd0     LIBCMT:wassert.obj
 0002:0000ffd8       ??_C@_1CE@OJBNHDMO@?$AAA?$AAs?$AAs?$AAe?$AAr?$AAt?$AAi?$AAo?$AAn?$AA?5?$AAf?$AAa?$AAi?$AAl?$AAe?$AAd?$AA?$CB?$AA?$AA@ 00455fd8     LIBCMT:wassert.obj
 0002:0000fffc       ??_C@_1BE@PHKBBGE@?$AAP?$AAr?$AAo?$AAg?$AAr?$AAa?$AAm?$AA?3?$AA?5?$AA?$AA@ 00455ffc     LIBCMT:wassert.obj
 0002:00010010       ??_C@_1CO@EAEJAADC@?$AA?$DM?$AAp?$AAr?$AAo?$AAg?$AAr?$AAa?$AAm?$AA?5?$AAn?$AAa?$AAm?$AAe?$AA?5?$AAu?$AAn?$AAk?$AAn?$AAo?$AAw?$AAn?$AA?$DO?$AA?$AA@ 00456010     LIBCMT:wassert.obj
 0002:00010040       ??_C@_1O@HEMHKNDC@?$AAF?$AAi?$AAl?$AAe?$AA?3?$AA?5?$AA?$AA@ 00456040     LIBCMT:wassert.obj
 0002:00010050       ??_C@_1O@KCAFKHJE@?$AAL?$AAi?$AAn?$AAe?$AA?3?$AA?5?$AA?$AA@ 00456050     LIBCMT:wassert.obj
 0002:00010060       ??_C@_1BK@PEDCIPMA@?$AAE?$AAx?$AAp?$AAr?$AAe?$AAs?$AAs?$AAi?$AAo?$AAn?$AA?3?$AA?5?$AA?$AA@ 00456060     LIBCMT:wassert.obj
 0002:00010080       ??_C@_1OA@EGMLFBHJ@?$AAF?$AAo?$AAr?$AA?5?$AAi?$AAn?$AAf?$AAo?$AAr?$AAm?$AAa?$AAt?$AAi?$AAo?$AAn?$AA?5?$AAo?$AAn?$AA?5?$AAh?$AAo?$AAw?$AA?5?$AAy?$AAo?$AAu?$AAr?$AA?5?$AAp?$AAr?$AAo?$AAg@ 00456080     LIBCMT:wassert.obj
 0002:00010160       ??_C@_1HK@POCJMFGK@?$AA?$CI?$AAP?$AAr?$AAe?$AAs?$AAs?$AA?5?$AAR?$AAe?$AAt?$AAr?$AAy?$AA?5?$AAt?$AAo?$AA?5?$AAd?$AAe?$AAb?$AAu?$AAg?$AA?5?$AAt?$AAh?$AAe?$AA?5?$AAa?$AAp?$AAp?$AAl?$AAi?$AAc@ 00456160     LIBCMT:wassert.obj
 0002:000101e0       ??_C@_1EK@MBDPDCGA@?$AAM?$AAi?$AAc?$AAr?$AAo?$AAs?$AAo?$AAf?$AAt?$AA?5?$AAV?$AAi?$AAs?$AAu?$AAa?$AAl?$AA?5?$AAC?$AA?$CL?$AA?$CL?$AA?5?$AAR?$AAu?$AAn?$AAt?$AAi?$AAm?$AAe?$AA?5?$AAL?$AAi?$AAb@ 004561e0     LIBCMT:wassert.obj
 0002:0001022c       __FPinit                   0045622c     LIBCMT:fpinit.obj
 0002:00010238       ??_C@_1BI@BGOHAHKC@?$AAm?$AAs?$AAc?$AAo?$AAr?$AAe?$AAe?$AA?4?$AAd?$AAl?$AAl?$AA?$AA@ 00456238     LIBCMT:crt0dat.obj
 0002:00010250       ??_C@_0P@MIGLKIOC@CorExitProcess?$AA@ 00456250     LIBCMT:crt0dat.obj
 0002:00010280       ??_C@_1BG@GOEBHBDC@?$AAU?$AAS?$AAE?$AAR?$AA3?$AA2?$AA?4?$AAD?$AAL?$AAL?$AA?$AA@ 00456280     LIBCMT:crtmboxw.obj
 0002:00010298       ??_C@_0M@DLDCCGNP@MessageBoxW?$AA@ 00456298     LIBCMT:crtmboxw.obj
 0002:000102a4       ??_C@_0BA@HNOPNCHB@GetActiveWindow?$AA@ 004562a4     LIBCMT:crtmboxw.obj
 0002:000102b4       ??_C@_0BD@HHGDFDBJ@GetLastActivePopup?$AA@ 004562b4     LIBCMT:crtmboxw.obj
 0002:000102c8       ??_C@_0BK@DEKFELLI@GetUserObjectInformationW?$AA@ 004562c8     LIBCMT:crtmboxw.obj
 0002:000102e4       ??_C@_0BI@DFKBFLJE@GetProcessWindowStation?$AA@ 004562e4     LIBCMT:crtmboxw.obj
 0002:00010300       ??_C@_1FE@LLNEDJMD@?$AAR?$AA6?$AA0?$AA0?$AA8?$AA?$AN?$AA?6?$AA?9?$AA?5?$AAn?$AAo?$AAt?$AA?5?$AAe?$AAn?$AAo?$AAu?$AAg?$AAh?$AA?5?$AAs?$AAp?$AAa?$AAc?$AAe?$AA?5?$AAf?$AAo?$AAr?$AA?5?$AAa?$AAr@ 00456300     LIBCMT:crt0msg.obj
 0002:00010358       ??_C@_1FI@HONFMGBI@?$AAR?$AA6?$AA0?$AA0?$AA9?$AA?$AN?$AA?6?$AA?9?$AA?5?$AAn?$AAo?$AAt?$AA?5?$AAe?$AAn?$AAo?$AAu?$AAg?$AAh?$AA?5?$AAs?$AAp?$AAa?$AAc?$AAe?$AA?5?$AAf?$AAo?$AAr?$AA?5?$AAe?$AAn@ 00456358     LIBCMT:crt0msg.obj
 0002:000103b0       ??_C@_1EG@BEHAGFJD@?$AAR?$AA6?$AA0?$AA1?$AA0?$AA?$AN?$AA?6?$AA?9?$AA?5?$AAa?$AAb?$AAo?$AAr?$AAt?$AA?$CI?$AA?$CJ?$AA?5?$AAh?$AAa?$AAs?$AA?5?$AAb?$AAe?$AAe?$AAn?$AA?5?$AAc?$AAa?$AAl?$AAl?$AAe?$AAd@ 004563b0     LIBCMT:crt0msg.obj
 0002:000103f8       ??_C@_1FI@LOGNIKDM@?$AAR?$AA6?$AA0?$AA1?$AA6?$AA?$AN?$AA?6?$AA?9?$AA?5?$AAn?$AAo?$AAt?$AA?5?$AAe?$AAn?$AAo?$AAu?$AAg?$AAh?$AA?5?$AAs?$AAp?$AAa?$AAc?$AAe?$AA?5?$AAf?$AAo?$AAr?$AA?5?$AAt?$AAh@ 004563f8     LIBCMT:crt0msg.obj
 0002:00010450       ??_C@_1FK@BEOGODMC@?$AAR?$AA6?$AA0?$AA1?$AA7?$AA?$AN?$AA?6?$AA?9?$AA?5?$AAu?$AAn?$AAe?$AAx?$AAp?$AAe?$AAc?$AAt?$AAe?$AAd?$AA?5?$AAm?$AAu?$AAl?$AAt?$AAi?$AAt?$AAh?$AAr?$AAe?$AAa?$AAd?$AA?5@ 00456450     LIBCMT:crt0msg.obj
 0002:000104b0       ??_C@_1EC@JIBHAOPH@?$AAR?$AA6?$AA0?$AA1?$AA8?$AA?$AN?$AA?6?$AA?9?$AA?5?$AAu?$AAn?$AAe?$AAx?$AAp?$AAe?$AAc?$AAt?$AAe?$AAd?$AA?5?$AAh?$AAe?$AAa?$AAp?$AA?5?$AAe?$AAr?$AAr?$AAo?$AAr?$AA?$AN?$AA?6@ 004564b0     LIBCMT:crt0msg.obj
 0002:000104f8       ??_C@_1FC@ECHBIFBC@?$AAR?$AA6?$AA0?$AA1?$AA9?$AA?$AN?$AA?6?$AA?9?$AA?5?$AAu?$AAn?$AAa?$AAb?$AAl?$AAe?$AA?5?$AAt?$AAo?$AA?5?$AAo?$AAp?$AAe?$AAn?$AA?5?$AAc?$AAo?$AAn?$AAs?$AAo?$AAl?$AAe?$AA?5@ 004564f8     LIBCMT:crt0msg.obj
 0002:00010550       ??_C@_1GK@FHCKBEFA@?$AAR?$AA6?$AA0?$AA2?$AA4?$AA?$AN?$AA?6?$AA?9?$AA?5?$AAn?$AAo?$AAt?$AA?5?$AAe?$AAn?$AAo?$AAu?$AAg?$AAh?$AA?5?$AAs?$AAp?$AAa?$AAc?$AAe?$AA?5?$AAf?$AAo?$AAr?$AA?5?$AA_?$AAo@ 00456550     LIBCMT:crt0msg.obj
 0002:000105c0       ??_C@_1EM@MAADIHMB@?$AAR?$AA6?$AA0?$AA2?$AA5?$AA?$AN?$AA?6?$AA?9?$AA?5?$AAp?$AAu?$AAr?$AAe?$AA?5?$AAv?$AAi?$AAr?$AAt?$AAu?$AAa?$AAl?$AA?5?$AAf?$AAu?$AAn?$AAc?$AAt?$AAi?$AAo?$AAn?$AA?5?$AAc@ 004565c0     LIBCMT:crt0msg.obj
 0002:00010610       ??_C@_1GK@MCAAGJMO@?$AAR?$AA6?$AA0?$AA2?$AA6?$AA?$AN?$AA?6?$AA?9?$AA?5?$AAn?$AAo?$AAt?$AA?5?$AAe?$AAn?$AAo?$AAu?$AAg?$AAh?$AA?5?$AAs?$AAp?$AAa?$AAc?$AAe?$AA?5?$AAf?$AAo?$AAr?$AA?5?$AAs?$AAt@ 00456610     LIBCMT:crt0msg.obj
 0002:00010680       ??_C@_1GK@MFGOKLAG@?$AAR?$AA6?$AA0?$AA2?$AA7?$AA?$AN?$AA?6?$AA?9?$AA?5?$AAn?$AAo?$AAt?$AA?5?$AAe?$AAn?$AAo?$AAu?$AAg?$AAh?$AA?5?$AAs?$AAp?$AAa?$AAc?$AAe?$AA?5?$AAf?$AAo?$AAr?$AA?5?$AAl?$AAo@ 00456680     LIBCMT:crt0msg.obj
 0002:000106f0       ??_C@_1EK@HHFLMAOL@?$AAR?$AA6?$AA0?$AA2?$AA8?$AA?$AN?$AA?6?$AA?9?$AA?5?$AAu?$AAn?$AAa?$AAb?$AAl?$AAe?$AA?5?$AAt?$AAo?$AA?5?$AAi?$AAn?$AAi?$AAt?$AAi?$AAa?$AAl?$AAi?$AAz?$AAe?$AA?5?$AAh?$AAe@ 004566f0     LIBCMT:crt0msg.obj
 0002:0001073c       ??_C@_1DO@BMFCDCD@?$AAR?$AA6?$AA0?$AA3?$AA0?$AA?$AN?$AA?6?$AA?9?$AA?5?$AAC?$AAR?$AAT?$AA?5?$AAn?$AAo?$AAt?$AA?5?$AAi?$AAn?$AAi?$AAt?$AAi?$AAa?$AAl?$AAi?$AAz?$AAe?$AAd?$AA?$AN?$AA?6?$AA?$AA@ 0045673c     LIBCMT:crt0msg.obj
 0002:00010780       ??_C@_1MG@ENCOOIDF@?$AAR?$AA6?$AA0?$AA3?$AA1?$AA?$AN?$AA?6?$AA?9?$AA?5?$AAA?$AAt?$AAt?$AAe?$AAm?$AAp?$AAt?$AA?5?$AAt?$AAo?$AA?5?$AAi?$AAn?$AAi?$AAt?$AAi?$AAa?$AAl?$AAi?$AAz?$AAe?$AA?5?$AAt@ 00456780     LIBCMT:crt0msg.obj
 0002:00010848       ??_C@_1GG@GOPILAJP@?$AAR?$AA6?$AA0?$AA3?$AA2?$AA?$AN?$AA?6?$AA?9?$AA?5?$AAn?$AAo?$AAt?$AA?5?$AAe?$AAn?$AAo?$AAu?$AAg?$AAh?$AA?5?$AAs?$AAp?$AAa?$AAc?$AAe?$AA?5?$AAf?$AAo?$AAr?$AA?5?$AAl?$AAo@ 00456848     LIBCMT:crt0msg.obj
 0002:000108b0       ??_C@_1BOO@KGEDBGAJ@?$AAR?$AA6?$AA0?$AA3?$AA3?$AA?$AN?$AA?6?$AA?9?$AA?5?$AAA?$AAt?$AAt?$AAe?$AAm?$AAp?$AAt?$AA?5?$AAt?$AAo?$AA?5?$AAu?$AAs?$AAe?$AA?5?$AAM?$AAS?$AAI?$AAL?$AA?5?$AAc?$AAo?$AAd@ 004568b0     LIBCMT:crt0msg.obj
 0002:00010aa0       ??_C@_1GG@MKFPEKFO@?$AAR?$AA6?$AA0?$AA3?$AA4?$AA?$AN?$AA?6?$AA?9?$AA?5?$AAi?$AAn?$AAc?$AAo?$AAn?$AAs?$AAi?$AAs?$AAt?$AAe?$AAn?$AAt?$AA?5?$AAo?$AAn?$AAe?$AAx?$AAi?$AAt?$AA?5?$AAb?$AAe?$AAg@ 00456aa0     LIBCMT:crt0msg.obj
 0002:00010b08       ??_C@_1BO@BFCDCGC@?$AAD?$AAO?$AAM?$AAA?$AAI?$AAN?$AA?5?$AAe?$AAr?$AAr?$AAo?$AAr?$AA?$AN?$AA?6?$AA?$AA@ 00456b08     LIBCMT:crt0msg.obj
 0002:00010b28       ??_C@_1BK@KMOMNAAI@?$AAS?$AAI?$AAN?$AAG?$AA?5?$AAe?$AAr?$AAr?$AAo?$AAr?$AA?$AN?$AA?6?$AA?$AA@ 00456b28     LIBCMT:crt0msg.obj
 0002:00010b44       ??_C@_1BM@JBBEPPHI@?$AAT?$AAL?$AAO?$AAS?$AAS?$AA?5?$AAe?$AAr?$AAr?$AAo?$AAr?$AA?$AN?$AA?6?$AA?$AA@ 00456b44     LIBCMT:crt0msg.obj
 0002:00010b60       ??_C@_15JNBOKNOG@?$AA?$AN?$AA?6?$AA?$AA@ 00456b60     LIBCMT:crt0msg.obj
 0002:00010b68       ??_C@_1BO@BKOMIGKJ@?$AAr?$AAu?$AAn?$AAt?$AAi?$AAm?$AAe?$AA?5?$AAe?$AAr?$AAr?$AAo?$AAr?$AA?5?$AA?$AA@ 00456b68     LIBCMT:crt0msg.obj
 0002:00010c40       ??_C@_1FK@PGACCAFB@?$AAR?$AA6?$AA0?$AA0?$AA2?$AA?$AN?$AA?6?$AA?9?$AA?5?$AAf?$AAl?$AAo?$AAa?$AAt?$AAi?$AAn?$AAg?$AA?5?$AAp?$AAo?$AAi?$AAn?$AAt?$AA?5?$AAs?$AAu?$AAp?$AAp?$AAo?$AAr?$AAt?$AA?5@ 00456c40     LIBCMT:crt0msg.obj
 0002:00010c9c       ??_C@_1DE@JNGNBFGO@?$AAR?$AAu?$AAn?$AAt?$AAi?$AAm?$AAe?$AA?5?$AAE?$AAr?$AAr?$AAo?$AAr?$AA?$CB?$AA?6?$AA?6?$AAP?$AAr?$AAo?$AAg?$AAr?$AAa?$AAm?$AA?3?$AA?5?$AA?$AA@ 00456c9c     LIBCMT:crt0msg.obj
 0002:00010cd0       ??_C@_05KLBDPFGC@e?$CL000?$AA@ 00456cd0     LIBCMT:cvt.obj
 0002:00010cd8       ??_C@_1O@CEDCILHN@?$AA?$CI?$AAn?$AAu?$AAl?$AAl?$AA?$CJ?$AA?$AA@ 00456cd8     LIBCMT:output.obj
 0002:00010ce8       ___lookuptable             00456ce8     LIBCMT:output.obj
 0002:00010d54       ??_C@_1M@HPNHIDJI@?$AAj?$AAa?$AA?9?$AAJ?$AAP?$AA?$AA@ 00456d54     LIBCMT:mbctype.obj
 0002:00010d60       ??_C@_1M@BIBDDEMK@?$AAz?$AAh?$AA?9?$AAC?$AAN?$AA?$AA@ 00456d60     LIBCMT:mbctype.obj
 0002:00010d6c       ??_C@_1M@JLOOOEGK@?$AAk?$AAo?$AA?9?$AAK?$AAR?$AA?$AA@ 00456d6c     LIBCMT:mbctype.obj
 0002:00010d78       ??_C@_1M@CLNBBOPM@?$AAz?$AAh?$AA?9?$AAT?$AAW?$AA?$AA@ 00456d78     LIBCMT:mbctype.obj
 0002:00010d84       ??_C@_03KOEHGMDN@Sun?$AA@  00456d84     LIBCMT:nlsdata.obj
 0002:00010d88       ??_C@_03PDAGKDH@Mon?$AA@   00456d88     LIBCMT:nlsdata.obj
 0002:00010d8c       ??_C@_03NAGEINEP@Tue?$AA@  00456d8c     LIBCMT:nlsdata.obj
 0002:00010d90       ??_C@_03MHOMLAJA@Wed?$AA@  00456d90     LIBCMT:nlsdata.obj
 0002:00010d94       ??_C@_03IOFIKPDN@Thu?$AA@  00456d94     LIBCMT:nlsdata.obj
 0002:00010d98       ??_C@_03IDIOELNC@Fri?$AA@  00456d98     LIBCMT:nlsdata.obj
 0002:00010d9c       ??_C@_03FEFJNEK@Sat?$AA@   00456d9c     LIBCMT:nlsdata.obj
 0002:00010da0       ??_C@_06OOPIFAJ@Sunday?$AA@ 00456da0     LIBCMT:nlsdata.obj
 0002:00010da8       ??_C@_06JLEDEDGH@Monday?$AA@ 00456da8     LIBCMT:nlsdata.obj
 0002:00010db0       ??_C@_07BAAGCFCM@Tuesday?$AA@ 00456db0     LIBCMT:nlsdata.obj
 0002:00010db8       ??_C@_09DLIGFAKA@Wednesday?$AA@ 00456db8     LIBCMT:nlsdata.obj
 0002:00010dc4       ??_C@_08HACCIKIA@Thursday?$AA@ 00456dc4     LIBCMT:nlsdata.obj
 0002:00010dd0       ??_C@_06JECMNKMI@Friday?$AA@ 00456dd0     LIBCMT:nlsdata.obj
 0002:00010dd8       ??_C@_08INBOOONO@Saturday?$AA@ 00456dd8     LIBCMT:nlsdata.obj
 0002:00010de4       ??_C@_03JIHJHPIE@Jan?$AA@  00456de4     LIBCMT:nlsdata.obj
 0002:00010de8       ??_C@_03HJBDCHOM@Feb?$AA@  00456de8     LIBCMT:nlsdata.obj
 0002:00010dec       ??_C@_03ODNJBKGA@Mar?$AA@  00456dec     LIBCMT:nlsdata.obj
 0002:00010df0       ??_C@_03LEOLGMJP@Apr?$AA@  00456df0     LIBCMT:nlsdata.obj
 0002:00010df4       ??_C@_03CNMDKL@May?$AA@    00456df4     LIBCMT:nlsdata.obj
 0002:00010df8       ??_C@_03IDFGHECI@Jun?$AA@  00456df8     LIBCMT:nlsdata.obj
 0002:00010dfc       ??_C@_03LBGABGKK@Jul?$AA@  00456dfc     LIBCMT:nlsdata.obj
 0002:00010e00       ??_C@_03IFJFEIGA@Aug?$AA@  00456e00     LIBCMT:nlsdata.obj
 0002:00010e04       ??_C@_03GGCAPAJC@Sep?$AA@  00456e04     LIBCMT:nlsdata.obj
 0002:00010e08       ??_C@_03BMAOKBAD@Oct?$AA@  00456e08     LIBCMT:nlsdata.obj
 0002:00010e0c       ??_C@_03JPJOFNIA@Nov?$AA@  00456e0c     LIBCMT:nlsdata.obj
 0002:00010e10       ??_C@_03MKABNOCG@Dec?$AA@  00456e10     LIBCMT:nlsdata.obj
 0002:00010e14       ??_C@_07CGJPFGJA@January?$AA@ 00456e14     LIBCMT:nlsdata.obj
 0002:00010e1c       ??_C@_08GNJGEPFN@February?$AA@ 00456e1c     LIBCMT:nlsdata.obj
 0002:00010e28       ??_C@_05HPCKOFNC@March?$AA@ 00456e28     LIBCMT:nlsdata.obj
 0002:00010e30       ??_C@_05DMJDNLEJ@April?$AA@ 00456e30     LIBCMT:nlsdata.obj
 0002:00010e38       ??_C@_04CNLMGBGM@June?$AA@ 00456e38     LIBCMT:nlsdata.obj
 0002:00010e40       ??_C@_04MIEPOIFP@July?$AA@ 00456e40     LIBCMT:nlsdata.obj
 0002:00010e48       ??_C@_06LBBHFDDG@August?$AA@ 00456e48     LIBCMT:nlsdata.obj
 0002:00010e50       ??_C@_09BHHEALKD@September?$AA@ 00456e50     LIBCMT:nlsdata.obj
 0002:00010e5c       ??_C@_07JJNFCEND@October?$AA@ 00456e5c     LIBCMT:nlsdata.obj
 0002:00010e64       ??_C@_08HCHEGEOA@November?$AA@ 00456e64     LIBCMT:nlsdata.obj
 0002:00010e70       ??_C@_08EDHMEBNP@December?$AA@ 00456e70     LIBCMT:nlsdata.obj
 0002:00010e7c       ??_C@_02DEDBPAFC@AM?$AA@   00456e7c     LIBCMT:nlsdata.obj
 0002:00010e80       ??_C@_02CJNFDJBF@PM?$AA@   00456e80     LIBCMT:nlsdata.obj
 0002:00010e84       ??_C@_08BPBNCDIB@MM?1dd?1yy?$AA@ 00456e84     LIBCMT:nlsdata.obj
 0002:00010e90       ??_C@_0BE@CKGJFCPC@dddd?0?5MMMM?5dd?0?5yyyy?$AA@ 00456e90     LIBCMT:nlsdata.obj
 0002:00010ea4       ??_C@_08JCCMCCIL@HH?3mm?3ss?$AA@ 00456ea4     LIBCMT:nlsdata.obj
 0002:00010eb0       ??_C@_17MBGCMIPB@?$AAS?$AAu?$AAn?$AA?$AA@ 00456eb0     LIBCMT:nlsdata.obj
 0002:00010eb8       ??_C@_17KBOMKBF@?$AAM?$AAo?$AAn?$AA?$AA@ 00456eb8     LIBCMT:nlsdata.obj
 0002:00010ec0       ??_C@_17BMKGEGOJ@?$AAT?$AAu?$AAe?$AA?$AA@ 00456ec0     LIBCMT:nlsdata.obj
 0002:00010ec8       ??_C@_17CJEDCEPE@?$AAW?$AAe?$AAd?$AA?$AA@ 00456ec8     LIBCMT:nlsdata.obj
 0002:00010ed0       ??_C@_17PDPHAADD@?$AAT?$AAh?$AAu?$AA?$AA@ 00456ed0     LIBCMT:nlsdata.obj
 0002:00010ed8       ??_C@_17HFOLPPLP@?$AAF?$AAr?$AAi?$AA?$AA@ 00456ed8     LIBCMT:nlsdata.obj
 0002:00010ee0       ??_C@_17GGIBDPIH@?$AAS?$AAa?$AAt?$AA?$AA@ 00456ee0     LIBCMT:nlsdata.obj
 0002:00010ee8       ??_C@_1O@IHNHDHPB@?$AAS?$AAu?$AAn?$AAd?$AAa?$AAy?$AA?$AA@ 00456ee8     LIBCMT:nlsdata.obj
 0002:00010ef8       ??_C@_1O@MMNBFLIA@?$AAM?$AAo?$AAn?$AAd?$AAa?$AAy?$AA?$AA@ 00456ef8     LIBCMT:nlsdata.obj
 0002:00010f08       ??_C@_1BA@ENFBFFEK@?$AAT?$AAu?$AAe?$AAs?$AAd?$AAa?$AAy?$AA?$AA@ 00456f08     LIBCMT:nlsdata.obj
 0002:00010f18       ??_C@_1BE@EBOGMDOH@?$AAW?$AAe?$AAd?$AAn?$AAe?$AAs?$AAd?$AAa?$AAy?$AA?$AA@ 00456f18     LIBCMT:nlsdata.obj
 0002:00010f2c       ??_C@_1BC@HHMNLIHE@?$AAT?$AAh?$AAu?$AAr?$AAs?$AAd?$AAa?$AAy?$AA?$AA@ 00456f2c     LIBCMT:nlsdata.obj
 0002:00010f40       ??_C@_1O@PDICJHAG@?$AAF?$AAr?$AAi?$AAd?$AAa?$AAy?$AA?$AA@ 00456f40     LIBCMT:nlsdata.obj
 0002:00010f50       ??_C@_1BC@ENMNNPAJ@?$AAS?$AAa?$AAt?$AAu?$AAr?$AAd?$AAa?$AAy?$AA?$AA@ 00456f50     LIBCMT:nlsdata.obj
 0002:00010f64       ??_C@_17DKNBKCHM@?$AAJ?$AAa?$AAn?$AA?$AA@ 00456f64     LIBCMT:nlsdata.obj
 0002:00010f6c       ??_C@_17LMDJEKJN@?$AAF?$AAe?$AAb?$AA?$AA@ 00456f6c     LIBCMT:nlsdata.obj
 0002:00010f74       ??_C@_17CKNLEDEC@?$AAM?$AAa?$AAr?$AA?$AA@ 00456f74     LIBCMT:nlsdata.obj
 0002:00010f7c       ??_C@_17LFPOIHDD@?$AAA?$AAp?$AAr?$AA?$AA@ 00456f7c     LIBCMT:nlsdata.obj
 0002:00010f84       ??_C@_17PNNKMEED@?$AAM?$AAa?$AAy?$AA?$AA@ 00456f84     LIBCMT:nlsdata.obj
 0002:00010f8c       ??_C@_17KCJGOCPB@?$AAJ?$AAu?$AAn?$AA?$AA@ 00456f8c     LIBCMT:nlsdata.obj
 0002:00010f94       ??_C@_17IJPCKHK@?$AAJ?$AAu?$AAl?$AA?$AA@ 00456f94     LIBCMT:nlsdata.obj
 0002:00010f9c       ??_C@_17ICPELBCN@?$AAA?$AAu?$AAg?$AA?$AA@ 00456f9c     LIBCMT:nlsdata.obj
 0002:00010fa4       ??_C@_17HCHCOKMG@?$AAS?$AAe?$AAp?$AA?$AA@ 00456fa4     LIBCMT:nlsdata.obj
 0002:00010fac       ??_C@_17FNLKOI@?$AAO?$AAc?$AAt?$AA?$AA@ 00456fac     LIBCMT:nlsdata.obj
 0002:00010fb4       ??_C@_17BBDMLCIG@?$AAN?$AAo?$AAv?$AA?$AA@ 00456fb4     LIBCMT:nlsdata.obj
 0002:00010fbc       ??_C@_17EGKACKIF@?$AAD?$AAe?$AAc?$AA?$AA@ 00456fbc     LIBCMT:nlsdata.obj
 0002:00010fc4       ??_C@_1BA@EFMEIEBA@?$AAJ?$AAa?$AAn?$AAu?$AAa?$AAr?$AAy?$AA?$AA@ 00456fc4     LIBCMT:nlsdata.obj
 0002:00010fd4       ??_C@_1BC@JGDDFFAM@?$AAF?$AAe?$AAb?$AAr?$AAu?$AAa?$AAr?$AAy?$AA?$AA@ 00456fd4     LIBCMT:nlsdata.obj
 0002:00010fe8       ??_C@_1M@IKEENEDF@?$AAM?$AAa?$AAr?$AAc?$AAh?$AA?$AA@ 00456fe8     LIBCMT:nlsdata.obj
 0002:00010ff4       ??_C@_1M@GJNLMHFD@?$AAA?$AAp?$AAr?$AAi?$AAl?$AA?$AA@ 00456ff4     LIBCMT:nlsdata.obj
 0002:00011000       ??_C@_19EPFLPGAP@?$AAJ?$AAu?$AAn?$AAe?$AA?$AA@ 00457000     LIBCMT:nlsdata.obj
 0002:0001100c       ??_C@_19BIFMLPCD@?$AAJ?$AAu?$AAl?$AAy?$AA?$AA@ 0045700c     LIBCMT:nlsdata.obj
 0002:00011018       ??_C@_1O@PAHLKOAC@?$AAA?$AAu?$AAg?$AAu?$AAs?$AAt?$AA?$AA@ 00457018     LIBCMT:nlsdata.obj
 0002:00011028       ??_C@_1BE@DKAAMBJL@?$AAS?$AAe?$AAp?$AAt?$AAe?$AAm?$AAb?$AAe?$AAr?$AA?$AA@ 00457028     LIBCMT:nlsdata.obj
 0002:0001103c       ??_C@_1BA@EPANDLNG@?$AAO?$AAc?$AAt?$AAo?$AAb?$AAe?$AAr?$AA?$AA@ 0045703c     LIBCMT:nlsdata.obj
 0002:0001104c       ??_C@_1BC@BGLIFPF@?$AAN?$AAo?$AAv?$AAe?$AAm?$AAb?$AAe?$AAr?$AA?$AA@ 0045704c     LIBCMT:nlsdata.obj
 0002:00011060       ??_C@_1BC@FEMKIFH@?$AAD?$AAe?$AAc?$AAe?$AAm?$AAb?$AAe?$AAr?$AA?$AA@ 00457060     LIBCMT:nlsdata.obj
 0002:00011074       ??_C@_15ODEHAHHF@?$AAA?$AAM?$AA?$AA@ 00457074     LIBCMT:nlsdata.obj
 0002:0001107c       ??_C@_15CLMNNGEL@?$AAP?$AAM?$AA?$AA@ 0045707c     LIBCMT:nlsdata.obj
 0002:00011084       ??_C@_1BC@IEBCMHCM@?$AAM?$AAM?$AA?1?$AAd?$AAd?$AA?1?$AAy?$AAy?$AA?$AA@ 00457084     LIBCMT:nlsdata.obj
 0002:00011098       ??_C@_1CI@KNAKOEBC@?$AAd?$AAd?$AAd?$AAd?$AA?0?$AA?5?$AAM?$AAM?$AAM?$AAM?$AA?5?$AAd?$AAd?$AA?0?$AA?5?$AAy?$AAy?$AAy?$AAy?$AA?$AA@ 00457098     LIBCMT:nlsdata.obj
 0002:000110c0       ??_C@_1BC@GDGBMEMK@?$AAH?$AAH?$AA?3?$AAm?$AAm?$AA?3?$AAs?$AAs?$AA?$AA@ 004570c0     LIBCMT:nlsdata.obj
 0002:000110d4       ??_C@_1M@BMHNFIME@?$AAe?$AAn?$AA?9?$AAU?$AAS?$AA?$AA@ 004570d4     LIBCMT:nlsdata.obj
 0002:00011160       ??_C@_1M@PBPMMENC@?$AAa?$AAm?$AA?1?$AAp?$AAm?$AA?$AA@ 00457160     LIBCMT:wcsftime.obj
 0002:0001116c       ??_C@_17BLFJJHMM@?$AAa?$AA?1?$AAp?$AA?$AA@ 0045716c     LIBCMT:wcsftime.obj
 0002:00011174       ??_C@_1BK@MGMFAEKH@?$AAk?$AAe?$AAr?$AAn?$AAe?$AAl?$AA3?$AA2?$AA?4?$AAd?$AAl?$AAl?$AA?$AA@ 00457174     LIBCMT:winapisupp.obj
 0002:00011190       ??_C@_08KNHFBNJ@FlsAlloc?$AA@ 00457190     LIBCMT:winapisupp.obj
 0002:0001119c       ??_C@_07PEJMOBNF@FlsFree?$AA@ 0045719c     LIBCMT:winapisupp.obj
 0002:000111a4       ??_C@_0M@GDNOONDI@FlsGetValue?$AA@ 004571a4     LIBCMT:winapisupp.obj
 0002:000111b0       ??_C@_0M@JCPCPOEF@FlsSetValue?$AA@ 004571b0     LIBCMT:winapisupp.obj
 0002:000111bc       ??_C@_0BM@HCFOFFN@InitializeCriticalSectionEx?$AA@ 004571bc     LIBCMT:winapisupp.obj
 0002:000111d8       ??_C@_0BD@KIEEOEEH@CreateSemaphoreExW?$AA@ 004571d8     LIBCMT:winapisupp.obj
 0002:000111ec       ??_C@_0BI@BKLFFAPO@SetThreadStackGuarantee?$AA@ 004571ec     LIBCMT:winapisupp.obj
 0002:00011204       ??_C@_0BG@OGFAJCKC@CreateThreadpoolTimer?$AA@ 00457204     LIBCMT:winapisupp.obj
 0002:0001121c       ??_C@_0BD@LPLEMMDI@SetThreadpoolTimer?$AA@ 0045721c     LIBCMT:winapisupp.obj
 0002:00011230       ??_C@_0CA@FMNJENH@WaitForThreadpoolTimerCallbacks?$AA@ 00457230     LIBCMT:winapisupp.obj
 0002:00011250       ??_C@_0BF@DCFCCNOC@CloseThreadpoolTimer?$AA@ 00457250     LIBCMT:winapisupp.obj
 0002:00011268       ??_C@_0BF@FLABGKKM@CreateThreadpoolWait?$AA@ 00457268     LIBCMT:winapisupp.obj
 0002:00011280       ??_C@_0BC@MGCOHNA@SetThreadpoolWait?$AA@ 00457280     LIBCMT:winapisupp.obj
 0002:00011294       ??_C@_0BE@OCIOMIMP@CloseThreadpoolWait?$AA@ 00457294     LIBCMT:winapisupp.obj
 0002:000112a8       ??_C@_0BJ@LKGHFHBO@FlushProcessWriteBuffers?$AA@ 004572a8     LIBCMT:winapisupp.obj
 0002:000112c4       ??_C@_0BP@KALKKPMO@FreeLibraryWhenCallbackReturns?$AA@ 004572c4     LIBCMT:winapisupp.obj
 0002:000112e4       ??_C@_0BK@DFNBACLA@GetCurrentProcessorNumber?$AA@ 004572e4     LIBCMT:winapisupp.obj
 0002:00011300       ??_C@_0BP@KHGALBC@GetLogicalProcessorInformation?$AA@ 00457300     LIBCMT:winapisupp.obj
 0002:00011320       ??_C@_0BE@FKKLLFLM@CreateSymbolicLinkW?$AA@ 00457320     LIBCMT:winapisupp.obj
 0002:00011334       ??_C@_0BJ@OHNKDLIJ@SetDefaultDllDirectories?$AA@ 00457334     LIBCMT:winapisupp.obj
 0002:00011350       ??_C@_0BE@LJANKFHF@EnumSystemLocalesEx?$AA@ 00457350     LIBCMT:winapisupp.obj
 0002:00011364       ??_C@_0BA@IHGNDAEB@CompareStringEx?$AA@ 00457364     LIBCMT:winapisupp.obj
 0002:00011374       ??_C@_0BA@EPCJIIPD@GetDateFormatEx?$AA@ 00457374     LIBCMT:winapisupp.obj
 0002:00011384       ??_C@_0BA@ONOKGCMP@GetLocaleInfoEx?$AA@ 00457384     LIBCMT:winapisupp.obj
 0002:00011394       ??_C@_0BA@CIJJKCJJ@GetTimeFormatEx?$AA@ 00457394     LIBCMT:winapisupp.obj
 0002:000113a4       ??_C@_0BJ@PBCCBIPI@GetUserDefaultLocaleName?$AA@ 004573a4     LIBCMT:winapisupp.obj
 0002:000113c0       ??_C@_0BC@CELBKLLA@IsValidLocaleName?$AA@ 004573c0     LIBCMT:winapisupp.obj
 0002:000113d4       ??_C@_0O@KKBNKAPF@LCMapStringEx?$AA@ 004573d4     LIBCMT:winapisupp.obj
 0002:000113e4       ??_C@_0BE@JOGNEJCI@GetCurrentPackageId?$AA@ 004573e4     LIBCMT:winapisupp.obj
 0002:000113f8       ___lookuptable_s           004573f8     LIBCMT:outputs.obj
 0002:00011458       __XcptActTab               00457458     LIBCMT:winxfltr.obj
 0002:000114e8       __XcptActTabCount          004574e8     LIBCMT:winxfltr.obj
 0002:000114ec       __XcptActTabSize           004574ec     LIBCMT:winxfltr.obj
 0002:000114f0       __First_FPE_Indx           004574f0     LIBCMT:winxfltr.obj
 0002:000114f4       __Num_FPE                  004574f4     LIBCMT:winxfltr.obj
 0002:000114f8       ___newctype                004574f8     LIBCMT:ctype.obj
 0002:000117f8       __wctype                   004577f8     LIBCMT:ctype.obj
 0002:00011a00       ___newclmap                00457a00     LIBCMT:ctype.obj
 0002:00011b80       ___newcumap                00457b80     LIBCMT:ctype.obj
 0002:00011d00       ??_C@_15PJPFLCCM@?$AAu?$AAk?$AA?$AA@ 00457d00     LIBCMT:getqloc.obj
 0002:00011d08       ___rg_language_count       00457d08     LIBCMT:getqloc.obj
 0002:00011d0c       ___rg_country_count        00457d0c     LIBCMT:getqloc.obj
 0002:00011d10       _LcidToLocaleNameTable     00457d10     LIBCMT:winapinls.obj
 0002:00012430       _LocaleNameToIndexTable    00458430     LIBCMT:winapinls.obj
 0002:00012b50       ??_C@_15EMKDOKLE@?$AAa?$AAr?$AA?$AA@ 00458b50     LIBCMT:winapinls.obj
 0002:00012b58       ??_C@_15KNPADPLH@?$AAb?$AAg?$AA?$AA@ 00458b58     LIBCMT:winapinls.obj
 0002:00012b60       ??_C@_15EDMHLDMO@?$AAc?$AAa?$AA?$AA@ 00458b60     LIBCMT:winapinls.obj
 0002:00012b68       ??_C@_1O@BPEAJADD@?$AAz?$AAh?$AA?9?$AAC?$AAH?$AAS?$AA?$AA@ 00458b68     LIBCMT:winapinls.obj
 0002:00012b78       ??_C@_15LJNHCMNK@?$AAc?$AAs?$AA?$AA@ 00458b78     LIBCMT:winapinls.obj
 0002:00012b80       ??_C@_15FOMCIDHG@?$AAd?$AAa?$AA?$AA@ 00458b80     LIBCMT:winapinls.obj
 0002:00012b88       ??_C@_15NBKABECB@?$AAd?$AAe?$AA?$AA@ 00458b88     LIBCMT:winapinls.obj
 0002:00012b90       ??_C@_15GHPEIIAO@?$AAe?$AAl?$AA?$AA@ 00458b90     LIBCMT:winapinls.obj
 0002:00012b98       ??_C@_15MNPNEAIF@?$AAe?$AAn?$AA?$AA@ 00458b98     LIBCMT:winapinls.obj
 0002:00012ba0       ??_C@_15GPIOMPMH@?$AAe?$AAs?$AA?$AA@ 00458ba0     LIBCMT:winapinls.obj
 0002:00012ba8       ??_C@_15NGLOAKJC@?$AAf?$AAi?$AA?$AA@ 00458ba8     LIBCMT:winapinls.obj
 0002:00012bb0       ??_C@_15FBKGNKAM@?$AAf?$AAr?$AA?$AA@ 00458bb0     LIBCMT:winapinls.obj
 0002:00012bb8       ??_C@_15KGGCNEFK@?$AAh?$AAe?$AA?$AA@ 00458bb8     LIBCMT:winapinls.obj
 0002:00012bc0       ??_C@_15PGHLIDMF@?$AAh?$AAu?$AA?$AA@ 00458bc0     LIBCMT:winapinls.obj
 0002:00012bc8       ??_C@_15BIEMAPLM@?$AAi?$AAs?$AA?$AA@ 00458bc8     LIBCMT:winapinls.obj
 0002:00012bd0       ??_C@_15IFJLDHAF@?$AAi?$AAt?$AA?$AA@ 00458bd0     LIBCMT:winapinls.obj
 0002:00012bd8       ??_C@_15GEMIOCAG@?$AAj?$AAa?$AA?$AA@ 00458bd8     LIBCMT:winapinls.obj
 0002:00012be0       ??_C@_15EPELEGJA@?$AAk?$AAo?$AA?$AA@ 00458be0     LIBCMT:winapinls.obj
 0002:00012be8       ??_C@_15NDDHIMN@?$AAn?$AAl?$AA?$AA@ 00458be8     LIBCMT:winapinls.obj
 0002:00012bf0       ??_C@_15BPIGNHCD@?$AAn?$AAo?$AA?$AA@ 00458bf0     LIBCMT:winapinls.obj
 0002:00012bf8       ??_C@_15DEOPBLCG@?$AAp?$AAl?$AA?$AA@ 00458bf8     LIBCMT:winapinls.obj
 0002:00012c00       ??_C@_15KBECGEFG@?$AAp?$AAt?$AA?$AA@ 00458c00     LIBCMT:winapinls.obj
 0002:00012c08       ??_C@_15GLJCBFMD@?$AAr?$AAo?$AA?$AA@ 00458c08     LIBCMT:winapinls.obj
 0002:00012c10       ??_C@_15FEDGKCDI@?$AAr?$AAu?$AA?$AA@ 00458c10     LIBCMT:winapinls.obj
 0002:00012c18       ??_C@_15GLKMLLHM@?$AAh?$AAr?$AA?$AA@ 00458c18     LIBCMT:winapinls.obj
 0002:00012c20       ??_C@_15CPKMFBDB@?$AAs?$AAk?$AA?$AA@ 00458c20     LIBCMT:winapinls.obj
 0002:00012c28       ??_C@_15BAAIOGMK@?$AAs?$AAq?$AA?$AA@ 00458c28     LIBCMT:winapinls.obj
 0002:00012c30       ??_C@_15INNPNOHD@?$AAs?$AAv?$AA?$AA@ 00458c30     LIBCMT:winapinls.obj
 0002:00012c38       ??_C@_15CABMMOGH@?$AAt?$AAh?$AA?$AA@ 00458c38     LIBCMT:winapinls.obj
 0002:00012c40       ??_C@_15BPLIHJJM@?$AAt?$AAr?$AA?$AA@ 00458c40     LIBCMT:winapinls.obj
 0002:00012c48       ??_C@_15NEOEKKDJ@?$AAu?$AAr?$AA?$AA@ 00458c48     LIBCMT:winapinls.obj
 0002:00012c50       ??_C@_15NFICGAJK@?$AAi?$AAd?$AA?$AA@ 00458c50     LIBCMT:winapinls.obj
 0002:00012c58       ??_C@_15HPJPHDM@?$AAb?$AAe?$AA?$AA@ 00458c58     LIBCMT:winapinls.obj
 0002:00012c60       ??_C@_15LCHLGJII@?$AAs?$AAl?$AA?$AA@ 00458c60     LIBCMT:winapinls.obj
 0002:00012c68       ??_C@_15PCFJPHHO@?$AAe?$AAt?$AA?$AA@ 00458c68     LIBCMT:winapinls.obj
 0002:00012c70       ??_C@_15HPFPGODN@?$AAl?$AAv?$AA?$AA@ 00458c70     LIBCMT:winapinls.obj
 0002:00012c78       ??_C@_15NFFGKGLG@?$AAl?$AAt?$AA?$AA@ 00458c78     LIBCMT:winapinls.obj
 0002:00012c80       ??_C@_15BDAKCCHN@?$AAf?$AAa?$AA?$AA@ 00458c80     LIBCMT:winapinls.obj
 0002:00012c88       ??_C@_15NFGIAIAJ@?$AAv?$AAi?$AA?$AA@ 00458c88     LIBCMT:winapinls.obj
 0002:00012c90       ??_C@_15LMKNDMHN@?$AAh?$AAy?$AA?$AA@ 00458c90     LIBCMT:winapinls.obj
 0002:00012c98       ??_C@_15IJBHMCFL@?$AAa?$AAz?$AA?$AA@ 00458c98     LIBCMT:winapinls.obj
 0002:00012ca0       ??_C@_15EKOFJABL@?$AAe?$AAu?$AA?$AA@ 00458ca0     LIBCMT:winapinls.obj
 0002:00012ca8       ??_C@_15BGHADCNK@?$AAm?$AAk?$AA?$AA@ 00458ca8     LIBCMT:winapinls.obj
 0002:00012cb0       ??_C@_15JDNICKHM@?$AAa?$AAf?$AA?$AA@ 00458cb0     LIBCMT:winapinls.obj
 0002:00012cb8       ??_C@_15KPJEDBKD@?$AAk?$AAa?$AA?$AA@ 00458cb8     LIBCMT:winapinls.obj
 0002:00012cc0       ??_C@_15PDNFFFEO@?$AAf?$AAo?$AA?$AA@ 00458cc0     LIBCMT:winapinls.obj
 0002:00012cc8       ??_C@_15OMLEGLOC@?$AAh?$AAi?$AA?$AA@ 00458cc8     LIBCMT:winapinls.obj
 0002:00012cd0       ??_C@_15IDNNENKK@?$AAm?$AAs?$AA?$AA@ 00458cd0     LIBCMT:winapinls.obj
 0002:00012cd8       ??_C@_15MACJNBMH@?$AAk?$AAk?$AA?$AA@ 00458cd8     LIBCMT:winapinls.obj
 0002:00012ce0       ??_C@_15DKDJEOND@?$AAk?$AAy?$AA?$AA@ 00458ce0     LIBCMT:winapinls.obj
 0002:00012ce8       ??_C@_15DFGDLJBG@?$AAs?$AAw?$AA?$AA@ 00458ce8     LIBCMT:winapinls.obj
 0002:00012cf0       ??_C@_15BBFAICNG@?$AAu?$AAz?$AA?$AA@ 00458cf0     LIBCMT:winapinls.obj
 0002:00012cf8       ??_C@_15DKNDCGEA@?$AAt?$AAt?$AA?$AA@ 00458cf8     LIBCMT:winapinls.obj
 0002:00012d00       ??_C@_15MGIFMDPL@?$AAp?$AAa?$AA?$AA@ 00458d00     LIBCMT:winapinls.obj
 0002:00012d08       ??_C@_15HCNDBBA@?$AAg?$AAu?$AA?$AA@ 00458d08     LIBCMT:winapinls.obj
 0002:00012d10       ??_C@_15FNBEIBON@?$AAt?$AAa?$AA?$AA@ 00458d10     LIBCMT:winapinls.obj
 0002:00012d18       ??_C@_15NCHGBGLK@?$AAt?$AAe?$AA?$AA@ 00458d18     LIBCMT:winapinls.obj
 0002:00012d20       ??_C@_15PHPHCBPF@?$AAk?$AAn?$AA?$AA@ 00458d20     LIBCMT:winapinls.obj
 0002:00012d28       ??_C@_15DLGBCKMP@?$AAm?$AAr?$AA?$AA@ 00458d28     LIBCMT:winapinls.obj
 0002:00012d30       ??_C@_15EABBLBFF@?$AAs?$AAa?$AA?$AA@ 00458d30     LIBCMT:winapinls.obj
 0002:00012d38       ??_C@_15CBKOMCOI@?$AAm?$AAn?$AA?$AA@ 00458d38     LIBCMT:winapinls.obj
 0002:00012d40       ??_C@_15CKDMCJAF@?$AAg?$AAl?$AA?$AA@ 00458d40     LIBCMT:winapinls.obj
 0002:00012d48       ??_C@_17CNJFBPG@?$AAk?$AAo?$AAk?$AA?$AA@ 00458d48     LIBCMT:winapinls.obj
 0002:00012d50       ??_C@_17FFBJICPL@?$AAs?$AAy?$AAr?$AA?$AA@ 00458d50     LIBCMT:winapinls.obj
 0002:00012d58       ??_C@_17KPNDCPAF@?$AAd?$AAi?$AAv?$AA?$AA@ 00458d58     LIBCMT:winapinls.obj
 0002:00012d60       ??_C@_1M@OKAHONE@?$AAa?$AAr?$AA?9?$AAS?$AAA?$AA?$AA@ 00458d60     LIBCMT:winapinls.obj
 0002:00012d6c       ??_C@_1M@FFFIGIGK@?$AAb?$AAg?$AA?9?$AAB?$AAG?$AA?$AA@ 00458d6c     LIBCMT:winapinls.obj
 0002:00012d78       ??_C@_1M@BJNKEDC@?$AAc?$AAa?$AA?9?$AAE?$AAS?$AA?$AA@ 00458d78     LIBCMT:winapinls.obj
 0002:00012d84       ??_C@_1M@IJJHFJHA@?$AAc?$AAs?$AA?9?$AAC?$AAZ?$AA?$AA@ 00458d84     LIBCMT:winapinls.obj
 0002:00012d90       ??_C@_1M@CLPEOBGI@?$AAd?$AAa?$AA?9?$AAD?$AAK?$AA?$AA@ 00458d90     LIBCMT:winapinls.obj
 0002:00012d9c       ??_C@_1M@MCMADGCB@?$AAd?$AAe?$AA?9?$AAD?$AAE?$AA?$AA@ 00458d9c     LIBCMT:winapinls.obj
 0002:00012da8       ??_C@_1M@OOCKEMAM@?$AAe?$AAl?$AA?9?$AAG?$AAR?$AA?$AA@ 00458da8     LIBCMT:winapinls.obj
 0002:00012db4       ??_C@_1M@DDNJFGID@?$AAf?$AAi?$AA?9?$AAF?$AAI?$AA?$AA@ 00458db4     LIBCMT:winapinls.obj
 0002:00012dc0       ??_C@_1M@GLIPPMAC@?$AAf?$AAr?$AA?9?$AAF?$AAR?$AA?$AA@ 00458dc0     LIBCMT:winapinls.obj
 0002:00012dcc       ??_C@_1M@GFMCHPE@?$AAh?$AAe?$AA?9?$AAI?$AAL?$AA?$AA@ 00458dcc     LIBCMT:winapinls.obj
 0002:00012dd8       ??_C@_1M@MHLPGNKM@?$AAh?$AAu?$AA?9?$AAH?$AAU?$AA?$AA@ 00458dd8     LIBCMT:winapinls.obj
 0002:00012de4       ??_C@_1M@LPDDNNPN@?$AAi?$AAs?$AA?9?$AAI?$AAS?$AA?$AA@ 00458de4     LIBCMT:winapinls.obj
 0002:00012df0       ??_C@_1M@MADIPODN@?$AAi?$AAt?$AA?9?$AAI?$AAT?$AA?$AA@ 00458df0     LIBCMT:winapinls.obj
 0002:00012dfc       ??_C@_1M@IHBJJGG@?$AAn?$AAl?$AA?9?$AAN?$AAL?$AA?$AA@ 00458dfc     LIBCMT:winapinls.obj
 0002:00012e08       ??_C@_1M@EANAGDL@?$AAn?$AAb?$AA?9?$AAN?$AAO?$AA?$AA@ 00458e08     LIBCMT:winapinls.obj
 0002:00012e14       ??_C@_1M@NEIEMEGP@?$AAp?$AAl?$AA?9?$AAP?$AAL?$AA?$AA@ 00458e14     LIBCMT:winapinls.obj
 0002:00012e20       ??_C@_1M@BOCFIGEP@?$AAp?$AAt?$AA?9?$AAB?$AAR?$AA?$AA@ 00458e20     LIBCMT:winapinls.obj
 0002:00012e2c       ??_C@_1M@IMPFOPBG@?$AAr?$AAo?$AA?9?$AAR?$AAO?$AA?$AA@ 00458e2c     LIBCMT:winapinls.obj
 0002:00012e38       ??_C@_1M@IDNNEJMM@?$AAr?$AAu?$AA?9?$AAR?$AAU?$AA?$AA@ 00458e38     LIBCMT:winapinls.obj
 0002:00012e44       ??_C@_1M@LILEEOGM@?$AAh?$AAr?$AA?9?$AAH?$AAR?$AA?$AA@ 00458e44     LIBCMT:winapinls.obj
 0002:00012e50       ??_C@_1M@FKIFEHPB@?$AAs?$AAk?$AA?9?$AAS?$AAK?$AA?$AA@ 00458e50     LIBCMT:winapinls.obj
 0002:00012e5c       ??_C@_1M@LJMAMNPJ@?$AAs?$AAq?$AA?9?$AAA?$AAL?$AA?$AA@ 00458e5c     LIBCMT:winapinls.obj
 0002:00012e68       ??_C@_1M@GIAKDKJK@?$AAs?$AAv?$AA?9?$AAS?$AAE?$AA?$AA@ 00458e68     LIBCMT:winapinls.obj
 0002:00012e74       ??_C@_1M@MKJKIKCL@?$AAt?$AAh?$AA?9?$AAT?$AAH?$AA?$AA@ 00458e74     LIBCMT:winapinls.obj
 0002:00012e80       ??_C@_1M@MFLCCMPB@?$AAt?$AAr?$AA?9?$AAT?$AAR?$AA?$AA@ 00458e80     LIBCMT:winapinls.obj
 0002:00012e8c       ??_C@_1M@OIJHDKJN@?$AAu?$AAr?$AA?9?$AAP?$AAK?$AA?$AA@ 00458e8c     LIBCMT:winapinls.obj
 0002:00012e98       ??_C@_1M@LHIPCIEK@?$AAi?$AAd?$AA?9?$AAI?$AAD?$AA?$AA@ 00458e98     LIBCMT:winapinls.obj
 0002:00012ea4       ??_C@_1M@MFMOBGI@?$AAu?$AAk?$AA?9?$AAU?$AAA?$AA?$AA@ 00458ea4     LIBCMT:winapinls.obj
 0002:00012eb0       ??_C@_1M@OBGLJIPL@?$AAb?$AAe?$AA?9?$AAB?$AAY?$AA?$AA@ 00458eb0     LIBCMT:winapinls.obj
 0002:00012ebc       ??_C@_1M@BCFAJEAD@?$AAs?$AAl?$AA?9?$AAS?$AAI?$AA?$AA@ 00458ebc     LIBCMT:winapinls.obj
 0002:00012ec8       ??_C@_1M@FKFFEDDN@?$AAe?$AAt?$AA?9?$AAE?$AAE?$AA?$AA@ 00458ec8     LIBCMT:winapinls.obj
 0002:00012ed4       ??_C@_1M@KGKKAACI@?$AAl?$AAv?$AA?9?$AAL?$AAV?$AA?$AA@ 00458ed4     LIBCMT:winapinls.obj
 0002:00012ee0       ??_C@_1M@IFGBIJO@?$AAl?$AAt?$AA?9?$AAL?$AAT?$AA?$AA@ 00458ee0     LIBCMT:winapinls.obj
 0002:00012eec       ??_C@_1M@FGEAHEDM@?$AAf?$AAa?$AA?9?$AAI?$AAR?$AA?$AA@ 00458eec     LIBCMT:winapinls.obj
 0002:00012ef8       ??_C@_1M@KBMAIBFN@?$AAv?$AAi?$AA?9?$AAV?$AAN?$AA?$AA@ 00458ef8     LIBCMT:winapinls.obj
 0002:00012f04       ??_C@_1M@GPCBKDJK@?$AAh?$AAy?$AA?9?$AAA?$AAM?$AA?$AA@ 00458f04     LIBCMT:winapinls.obj
 0002:00012f10       ??_C@_1BG@BECMDDJB@?$AAa?$AAz?$AA?9?$AAA?$AAZ?$AA?9?$AAL?$AAa?$AAt?$AAn?$AA?$AA@ 00458f10     LIBCMT:winapinls.obj
 0002:00012f28       ??_C@_1M@MAOFCAEA@?$AAe?$AAu?$AA?9?$AAE?$AAS?$AA?$AA@ 00458f28     LIBCMT:winapinls.obj
 0002:00012f34       ??_C@_1M@IGHABKPI@?$AAm?$AAk?$AA?9?$AAM?$AAK?$AA?$AA@ 00458f34     LIBCMT:winapinls.obj
 0002:00012f40       ??_C@_1M@IAIGNEJG@?$AAt?$AAn?$AA?9?$AAZ?$AAA?$AA?$AA@ 00458f40     LIBCMT:winapinls.obj
 0002:00012f4c       ??_C@_1M@IIJCOJFA@?$AAx?$AAh?$AA?9?$AAZ?$AAA?$AA?$AA@ 00458f4c     LIBCMT:winapinls.obj
 0002:00012f58       ??_C@_1M@LGPJHNJH@?$AAz?$AAu?$AA?9?$AAZ?$AAA?$AA?$AA@ 00458f58     LIBCMT:winapinls.obj
 0002:00012f64       ??_C@_1M@HOKAOIO@?$AAa?$AAf?$AA?9?$AAZ?$AAA?$AA?$AA@ 00458f64     LIBCMT:winapinls.obj
 0002:00012f70       ??_C@_1M@DPCLHLIE@?$AAk?$AAa?$AA?9?$AAG?$AAE?$AA?$AA@ 00458f70     LIBCMT:winapinls.obj
 0002:00012f7c       ??_C@_1M@BLKMHJBI@?$AAf?$AAo?$AA?9?$AAF?$AAO?$AA?$AA@ 00458f7c     LIBCMT:winapinls.obj
 0002:00012f88       ??_C@_1M@LGGJAPPB@?$AAh?$AAi?$AA?9?$AAI?$AAN?$AA?$AA@ 00458f88     LIBCMT:winapinls.obj
 0002:00012f94       ??_C@_1M@FIKPIHFE@?$AAm?$AAt?$AA?9?$AAM?$AAT?$AA?$AA@ 00458f94     LIBCMT:winapinls.obj
 0002:00012fa0       ??_C@_1M@HEGGPBFA@?$AAs?$AAe?$AA?9?$AAN?$AAO?$AA?$AA@ 00458fa0     LIBCMT:winapinls.obj
 0002:00012fac       ??_C@_1M@EIBJEEPA@?$AAm?$AAs?$AA?9?$AAM?$AAY?$AA?$AA@ 00458fac     LIBCMT:winapinls.obj
 0002:00012fb8       ??_C@_1M@FHLBGMPP@?$AAk?$AAk?$AA?9?$AAK?$AAZ?$AA?$AA@ 00458fb8     LIBCMT:winapinls.obj
 0002:00012fc4       ??_C@_1M@NGJJLCGI@?$AAk?$AAy?$AA?9?$AAK?$AAG?$AA?$AA@ 00458fc4     LIBCMT:winapinls.obj
 0002:00012fd0       ??_C@_1M@GIENNBFC@?$AAs?$AAw?$AA?9?$AAK?$AAE?$AA?$AA@ 00458fd0     LIBCMT:winapinls.obj
 0002:00012fdc       ??_C@_1BG@NDGMJIMJ@?$AAu?$AAz?$AA?9?$AAU?$AAZ?$AA?9?$AAL?$AAa?$AAt?$AAn?$AA?$AA@ 00458fdc     LIBCMT:winapinls.obj
 0002:00012ff4       ??_C@_1M@IDCCIHBC@?$AAt?$AAt?$AA?9?$AAR?$AAU?$AA?$AA@ 00458ff4     LIBCMT:winapinls.obj
 0002:00013000       ??_C@_1M@LOICPMOJ@?$AAb?$AAn?$AA?9?$AAI?$AAN?$AA?$AA@ 00459000     LIBCMT:winapinls.obj
 0002:0001300c       ??_C@_1M@KPKKNEAH@?$AAp?$AAa?$AA?9?$AAI?$AAN?$AA?$AA@ 0045900c     LIBCMT:winapinls.obj
 0002:00013018       ??_C@_1M@PJGPPBOG@?$AAg?$AAu?$AA?9?$AAI?$AAN?$AA?$AA@ 00459018     LIBCMT:winapinls.obj
 0002:00013024       ??_C@_1M@KMKMOPHI@?$AAt?$AAa?$AA?9?$AAI?$AAN?$AA?$AA@ 00459024     LIBCMT:winapinls.obj
 0002:00013030       ??_C@_1M@KFEHEPAC@?$AAt?$AAe?$AA?9?$AAI?$AAN?$AA?$AA@ 00459030     LIBCMT:winapinls.obj
 0002:0001303c       ??_C@_1M@CDCLMGHI@?$AAk?$AAn?$AA?9?$AAI?$AAN?$AA?$AA@ 0045903c     LIBCMT:winapinls.obj
 0002:00013048       ??_C@_1M@MIODLDKF@?$AAm?$AAl?$AA?9?$AAI?$AAN?$AA?$AA@ 00459048     LIBCMT:winapinls.obj
 0002:00013054       ??_C@_1M@PBIEACPO@?$AAm?$AAr?$AA?9?$AAI?$AAN?$AA?$AA@ 00459054     LIBCMT:winapinls.obj
 0002:00013060       ??_C@_1M@NIDEAGPH@?$AAs?$AAa?$AA?9?$AAI?$AAN?$AA?$AA@ 00459060     LIBCMT:winapinls.obj
 0002:0001306c       ??_C@_1M@FHIHCBIO@?$AAm?$AAn?$AA?9?$AAM?$AAN?$AA?$AA@ 0045906c     LIBCMT:winapinls.obj
 0002:00013078       ??_C@_1M@JAIJPENP@?$AAc?$AAy?$AA?9?$AAG?$AAB?$AA?$AA@ 00459078     LIBCMT:winapinls.obj
 0002:00013084       ??_C@_1M@PHGFBEPN@?$AAg?$AAl?$AA?9?$AAE?$AAS?$AA?$AA@ 00459084     LIBCMT:winapinls.obj
 0002:00013090       ??_C@_1O@KPIPDNCP@?$AAk?$AAo?$AAk?$AA?9?$AAI?$AAN?$AA?$AA@ 00459090     LIBCMT:winapinls.obj
 0002:000130a0       ??_C@_1O@KNHJLDJA@?$AAs?$AAy?$AAr?$AA?9?$AAS?$AAY?$AA?$AA@ 004590a0     LIBCMT:winapinls.obj
 0002:000130b0       ??_C@_1O@MKEKBLAH@?$AAd?$AAi?$AAv?$AA?9?$AAM?$AAV?$AA?$AA@ 004590b0     LIBCMT:winapinls.obj
 0002:000130c0       ??_C@_1O@OHDCKDDF@?$AAq?$AAu?$AAz?$AA?9?$AAB?$AAO?$AA?$AA@ 004590c0     LIBCMT:winapinls.obj
 0002:000130d0       ??_C@_1M@LEPJNLFD@?$AAn?$AAs?$AA?9?$AAZ?$AAA?$AA?$AA@ 004590d0     LIBCMT:winapinls.obj
 0002:000130dc       ??_C@_1M@OMLEIIJB@?$AAm?$AAi?$AA?9?$AAN?$AAZ?$AA?$AA@ 004590dc     LIBCMT:winapinls.obj
 0002:000130e8       ??_C@_1M@PMPEAILG@?$AAa?$AAr?$AA?9?$AAI?$AAQ?$AA?$AA@ 004590e8     LIBCMT:winapinls.obj
 0002:000130f4       ??_C@_1M@CNKPNOEE@?$AAd?$AAe?$AA?9?$AAC?$AAH?$AA?$AA@ 004590f4     LIBCMT:winapinls.obj
 0002:00013100       ??_C@_1M@LKMGMLKO@?$AAe?$AAn?$AA?9?$AAG?$AAB?$AA?$AA@ 00459100     LIBCMT:winapinls.obj
 0002:0001310c       ??_C@_1M@PGKJFFGL@?$AAe?$AAs?$AA?9?$AAM?$AAX?$AA?$AA@ 0045910c     LIBCMT:winapinls.obj
 0002:00013118       ??_C@_1M@DNNANBDC@?$AAf?$AAr?$AA?9?$AAB?$AAE?$AA?$AA@ 00459118     LIBCMT:winapinls.obj
 0002:00013124       ??_C@_1M@HLGMDFHM@?$AAi?$AAt?$AA?9?$AAC?$AAH?$AA?$AA@ 00459124     LIBCMT:winapinls.obj
 0002:00013130       ??_C@_1M@CLLBGJH@?$AAn?$AAl?$AA?9?$AAB?$AAE?$AA?$AA@ 00459130     LIBCMT:winapinls.obj
 0002:0001313c       ??_C@_1M@BODBOGLF@?$AAn?$AAn?$AA?9?$AAN?$AAO?$AA?$AA@ 0045913c     LIBCMT:winapinls.obj
 0002:00013148       ??_C@_1M@HFFAHKAD@?$AAp?$AAt?$AA?9?$AAP?$AAT?$AA?$AA@ 00459148     LIBCMT:winapinls.obj
 0002:00013154       ??_C@_1BG@LNOAKHIE@?$AAs?$AAr?$AA?9?$AAS?$AAP?$AA?9?$AAL?$AAa?$AAt?$AAn?$AA?$AA@ 00459154     LIBCMT:winapinls.obj
 0002:0001316c       ??_C@_1M@HBMHBGAK@?$AAs?$AAv?$AA?9?$AAF?$AAI?$AA?$AA@ 0045916c     LIBCMT:winapinls.obj
 0002:00013178       ??_C@_1BG@DGCJGJBE@?$AAa?$AAz?$AA?9?$AAA?$AAZ?$AA?9?$AAC?$AAy?$AAr?$AAl?$AA?$AA@ 00459178     LIBCMT:winapinls.obj
 0002:00013190       ??_C@_1M@KEJDAAHB@?$AAs?$AAe?$AA?9?$AAS?$AAE?$AA?$AA@ 00459190     LIBCMT:winapinls.obj
 0002:0001319c       ??_C@_1M@HEIBJJAD@?$AAm?$AAs?$AA?9?$AAB?$AAN?$AA?$AA@ 0045919c     LIBCMT:winapinls.obj
 0002:000131a8       ??_C@_1BG@PBGJMCEM@?$AAu?$AAz?$AA?9?$AAU?$AAZ?$AA?9?$AAC?$AAy?$AAr?$AAl?$AA?$AA@ 004591a8     LIBCMT:winapinls.obj
 0002:000131c0       ??_C@_1O@LAOBCMDF@?$AAq?$AAu?$AAz?$AA?9?$AAE?$AAC?$AA?$AA@ 004591c0     LIBCMT:winapinls.obj
 0002:000131d0       ??_C@_1M@POEEMAIO@?$AAa?$AAr?$AA?9?$AAE?$AAG?$AA?$AA@ 004591d0     LIBCMT:winapinls.obj
 0002:000131dc       ??_C@_1M@EFAKDEDL@?$AAz?$AAh?$AA?9?$AAH?$AAK?$AA?$AA@ 004591dc     LIBCMT:winapinls.obj
 0002:000131e8       ??_C@_1M@HKKIJHGI@?$AAd?$AAe?$AA?9?$AAA?$AAT?$AA?$AA@ 004591e8     LIBCMT:winapinls.obj
 0002:000131f4       ??_C@_1M@KBFBEHJF@?$AAe?$AAn?$AA?9?$AAA?$AAU?$AA?$AA@ 004591f4     LIBCMT:winapinls.obj
 0002:00013200       ??_C@_1M@MNPLFAAH@?$AAe?$AAs?$AA?9?$AAE?$AAS?$AA?$AA@ 00459200     LIBCMT:winapinls.obj
 0002:0001320c       ??_C@_1M@HJOOJFMA@?$AAf?$AAr?$AA?9?$AAC?$AAA?$AA?$AA@ 0045920c     LIBCMT:winapinls.obj
 0002:00013218       ??_C@_1BG@JPOFPNAB@?$AAs?$AAr?$AA?9?$AAS?$AAP?$AA?9?$AAC?$AAy?$AAr?$AAl?$AA?$AA@ 00459218     LIBCMT:winapinls.obj
 0002:00013230       ??_C@_1M@LNFOCMOB@?$AAs?$AAe?$AA?9?$AAF?$AAI?$AA?$AA@ 00459230     LIBCMT:winapinls.obj
 0002:0001323c       ??_C@_1O@MGJBOAMB@?$AAq?$AAu?$AAz?$AA?9?$AAP?$AAE?$AA?$AA@ 0045923c     LIBCMT:winapinls.obj
 0002:0001324c       ??_C@_1M@GJINLBOK@?$AAa?$AAr?$AA?9?$AAL?$AAY?$AA?$AA@ 0045924c     LIBCMT:winapinls.obj
 0002:00013258       ??_C@_1M@GGMNHJNL@?$AAz?$AAh?$AA?9?$AAS?$AAG?$AA?$AA@ 00459258     LIBCMT:winapinls.obj
 0002:00013264       ??_C@_1M@HOIKODND@?$AAd?$AAe?$AA?9?$AAL?$AAU?$AA?$AA@ 00459264     LIBCMT:winapinls.obj
 0002:00013270       ??_C@_1M@DDOCCGFG@?$AAe?$AAn?$AA?9?$AAC?$AAA?$AA?$AA@ 00459270     LIBCMT:winapinls.obj
 0002:0001327c       ??_C@_1M@BNOEMJLF@?$AAe?$AAs?$AA?9?$AAG?$AAT?$AA?$AA@ 0045927c     LIBCMT:winapinls.obj
 0002:00013288       ??_C@_1M@EOGNKEK@?$AAf?$AAr?$AA?9?$AAC?$AAH?$AA?$AA@ 00459288     LIBCMT:winapinls.obj
 0002:00013294       ??_C@_1M@FLIDJFHL@?$AAh?$AAr?$AA?9?$AAB?$AAA?$AA?$AA@ 00459294     LIBCMT:winapinls.obj
 0002:000132a0       ??_C@_1O@FMCELNAJ@?$AAs?$AAm?$AAj?$AA?9?$AAN?$AAO?$AA?$AA@ 004592a0     LIBCMT:winapinls.obj
 0002:000132b0       ??_C@_1M@JHGLJMGJ@?$AAa?$AAr?$AA?9?$AAD?$AAZ?$AA?$AA@ 004592b0     LIBCMT:winapinls.obj
 0002:000132bc       ??_C@_1M@JKKFDCNP@?$AAz?$AAh?$AA?9?$AAM?$AAO?$AA?$AA@ 004592bc     LIBCMT:winapinls.obj
 0002:000132c8       ??_C@_1M@GEEFALPE@?$AAd?$AAe?$AA?9?$AAL?$AAI?$AA?$AA@ 004592c8     LIBCMT:winapinls.obj
 0002:000132d4       ??_C@_1M@IGEOFBG@?$AAe?$AAn?$AA?9?$AAN?$AAZ?$AA?$AA@ 004592d4     LIBCMT:winapinls.obj
 0002:000132e0       ??_C@_1M@KDBONEHP@?$AAe?$AAs?$AA?9?$AAC?$AAR?$AA?$AA@ 004592e0     LIBCMT:winapinls.obj
 0002:000132ec       ??_C@_1M@FHMDOHNN@?$AAf?$AAr?$AA?9?$AAL?$AAU?$AA?$AA@ 004592ec     LIBCMT:winapinls.obj
 0002:000132f8       ??_C@_1BG@NFKKMAFG@?$AAb?$AAs?$AA?9?$AAB?$AAA?$AA?9?$AAL?$AAa?$AAt?$AAn?$AA?$AA@ 004592f8     LIBCMT:winapinls.obj
 0002:00013310       ??_C@_1O@IMNBEMCI@?$AAs?$AAm?$AAj?$AA?9?$AAS?$AAE?$AA?$AA@ 00459310     LIBCMT:winapinls.obj
 0002:00013320       ??_C@_1M@DHHMBNDP@?$AAa?$AAr?$AA?9?$AAM?$AAA?$AA?$AA@ 00459320     LIBCMT:winapinls.obj
 0002:0001332c       ??_C@_1M@BNBLJCGH@?$AAe?$AAn?$AA?9?$AAI?$AAE?$AA?$AA@ 0045932c     LIBCMT:winapinls.obj
 0002:00013338       ??_C@_1M@GEPAFMDL@?$AAe?$AAs?$AA?9?$AAP?$AAA?$AA?$AA@ 00459338     LIBCMT:winapinls.obj
 0002:00013344       ??_C@_1M@OJONDMDL@?$AAf?$AAr?$AA?9?$AAM?$AAC?$AA?$AA@ 00459344     LIBCMT:winapinls.obj
 0002:00013350       ??_C@_1BG@OBCNFJB@?$AAs?$AAr?$AA?9?$AAB?$AAA?$AA?9?$AAL?$AAa?$AAt?$AAn?$AA?$AA@ 00459350     LIBCMT:winapinls.obj
 0002:00013368       ??_C@_1O@KEMEEGPO@?$AAs?$AAm?$AAa?$AA?9?$AAN?$AAO?$AA?$AA@ 00459368     LIBCMT:winapinls.obj
 0002:00013378       ??_C@_1M@ELMGFODK@?$AAa?$AAr?$AA?9?$AAT?$AAN?$AA?$AA@ 00459378     LIBCMT:winapinls.obj
 0002:00013384       ??_C@_1M@BHDLHFAF@?$AAe?$AAn?$AA?9?$AAZ?$AAA?$AA?$AA@ 00459384     LIBCMT:winapinls.obj
 0002:00013390       ??_C@_1M@BMGIGLIF@?$AAe?$AAs?$AA?9?$AAD?$AAO?$AA?$AA@ 00459390     LIBCMT:winapinls.obj
 0002:0001339c       ??_C@_1BG@CMBHIPBE@?$AAs?$AAr?$AA?9?$AAB?$AAA?$AA?9?$AAC?$AAy?$AAr?$AAl?$AA?$AA@ 0045939c     LIBCMT:winapinls.obj
 0002:000133b4       ??_C@_1O@HEDBLHNP@?$AAs?$AAm?$AAa?$AA?9?$AAS?$AAE?$AA?$AA@ 004593b4     LIBCMT:winapinls.obj
 0002:000133c4       ??_C@_1M@DAGCADIM@?$AAa?$AAr?$AA?9?$AAO?$AAM?$AA?$AA@ 004593c4     LIBCMT:winapinls.obj
 0002:000133d0       ??_C@_1M@FODLMICG@?$AAe?$AAn?$AA?9?$AAJ?$AAM?$AA?$AA@ 004593d0     LIBCMT:winapinls.obj
 0002:000133dc       ??_C@_1M@DNMLCIHB@?$AAe?$AAs?$AA?9?$AAV?$AAE?$AA?$AA@ 004593dc     LIBCMT:winapinls.obj
 0002:000133e8       ??_C@_1O@EOKHMKJK@?$AAs?$AAm?$AAs?$AA?9?$AAF?$AAI?$AA?$AA@ 004593e8     LIBCMT:winapinls.obj
 0002:000133f8       ??_C@_1M@CAFJMKOF@?$AAa?$AAr?$AA?9?$AAY?$AAE?$AA?$AA@ 004593f8     LIBCMT:winapinls.obj
 0002:00013404       ??_C@_1M@CBFHIJLI@?$AAe?$AAn?$AA?9?$AAC?$AAB?$AA?$AA@ 00459404     LIBCMT:winapinls.obj
 0002:00013410       ??_C@_1M@BGNFLDN@?$AAe?$AAs?$AA?9?$AAC?$AAO?$AA?$AA@ 00459410     LIBCMT:winapinls.obj
 0002:0001341c       ??_C@_1O@JMPHMAMC@?$AAs?$AAm?$AAn?$AA?9?$AAF?$AAI?$AA?$AA@ 0045941c     LIBCMT:winapinls.obj
 0002:0001342c       ??_C@_1M@JLANABKE@?$AAa?$AAr?$AA?9?$AAS?$AAY?$AA?$AA@ 0045942c     LIBCMT:winapinls.obj
 0002:00013438       ??_C@_1M@HPKGCFGN@?$AAe?$AAn?$AA?9?$AAB?$AAZ?$AA?$AA@ 00459438     LIBCMT:winapinls.obj
 0002:00013444       ??_C@_1M@OLJCMLGM@?$AAe?$AAs?$AA?9?$AAP?$AAE?$AA?$AA@ 00459444     LIBCMT:winapinls.obj
 0002:00013450       ??_C@_1M@MKKGFKLE@?$AAa?$AAr?$AA?9?$AAJ?$AAO?$AA?$AA@ 00459450     LIBCMT:winapinls.obj
 0002:0001345c       ??_C@_1M@EKPGLDNI@?$AAe?$AAn?$AA?9?$AAT?$AAT?$AA?$AA@ 0045945c     LIBCMT:winapinls.obj
 0002:00013468       ??_C@_1M@OONGHFHE@?$AAe?$AAs?$AA?9?$AAA?$AAR?$AA?$AA@ 00459468     LIBCMT:winapinls.obj
 0002:00013474       ??_C@_1M@OOJFGBHE@?$AAa?$AAr?$AA?9?$AAL?$AAB?$AA?$AA@ 00459474     LIBCMT:winapinls.obj
 0002:00013480       ??_C@_1M@GCEJHNEG@?$AAe?$AAn?$AA?9?$AAZ?$AAW?$AA?$AA@ 00459480     LIBCMT:winapinls.obj
 0002:0001348c       ??_C@_1M@JNOCAHJI@?$AAe?$AAs?$AA?9?$AAE?$AAC?$AA?$AA@ 0045948c     LIBCMT:winapinls.obj
 0002:00013498       ??_C@_1M@JEFHPGGB@?$AAa?$AAr?$AA?9?$AAK?$AAW?$AA?$AA@ 00459498     LIBCMT:winapinls.obj
 0002:000134a4       ??_C@_1M@MLKIBJOJ@?$AAe?$AAn?$AA?9?$AAP?$AAH?$AA?$AA@ 004594a4     LIBCMT:winapinls.obj
 0002:000134b0       ??_C@_1M@BDNIPEND@?$AAe?$AAs?$AA?9?$AAC?$AAL?$AA?$AA@ 004594b0     LIBCMT:winapinls.obj
 0002:000134bc       ??_C@_1M@MPNMEKBD@?$AAa?$AAr?$AA?9?$AAA?$AAE?$AA?$AA@ 004594bc     LIBCMT:winapinls.obj
 0002:000134c8       ??_C@_1M@KBJALCPI@?$AAe?$AAs?$AA?9?$AAU?$AAY?$AA?$AA@ 004594c8     LIBCMT:winapinls.obj
 0002:000134d4       ??_C@_1M@LLCCOAGA@?$AAa?$AAr?$AA?9?$AAB?$AAH?$AA?$AA@ 004594d4     LIBCMT:winapinls.obj
 0002:000134e0       ??_C@_1M@PBFNCDEL@?$AAe?$AAs?$AA?9?$AAP?$AAY?$AA?$AA@ 004594e0     LIBCMT:winapinls.obj
 0002:000134ec       ??_C@_1M@EDGINPNP@?$AAa?$AAr?$AA?9?$AAQ?$AAA?$AA?$AA@ 004594ec     LIBCMT:winapinls.obj
 0002:000134f8       ??_C@_1M@MKDBIIJI@?$AAe?$AAs?$AA?9?$AAB?$AAO?$AA?$AA@ 004594f8     LIBCMT:winapinls.obj
 0002:00013504       ??_C@_1M@CPKKEBLD@?$AAe?$AAs?$AA?9?$AAS?$AAV?$AA?$AA@ 00459504     LIBCMT:winapinls.obj
 0002:00013510       ??_C@_1M@NDBGMMJL@?$AAe?$AAs?$AA?9?$AAH?$AAN?$AA?$AA@ 00459510     LIBCMT:winapinls.obj
 0002:0001351c       ??_C@_1M@JIJIBHDP@?$AAe?$AAs?$AA?9?$AAN?$AAI?$AA?$AA@ 0045951c     LIBCMT:winapinls.obj
 0002:00013528       ??_C@_1M@CGFMKEEK@?$AAe?$AAs?$AA?9?$AAP?$AAR?$AA?$AA@ 00459528     LIBCMT:winapinls.obj
 0002:00013534       ??_C@_1O@ICJHKIIK@?$AAz?$AAh?$AA?9?$AAC?$AAH?$AAT?$AA?$AA@ 00459534     LIBCMT:winapinls.obj
 0002:00013544       ??_C@_15CLNEJCE@?$AAs?$AAr?$AA?$AA@ 00459544     LIBCMT:winapinls.obj
 0002:0001354c       ??_C@_1M@KAHEKEIG@?$AAa?$AAf?$AA?9?$AAz?$AAa?$AA?$AA@ 0045954c     LIBCMT:winapinls.obj
 0002:00013558       ??_C@_1M@GIECOABL@?$AAa?$AAr?$AA?9?$AAa?$AAe?$AA?$AA@ 00459558     LIBCMT:winapinls.obj
 0002:00013564       ??_C@_1M@BMLMEKGI@?$AAa?$AAr?$AA?9?$AAb?$AAh?$AA?$AA@ 00459564     LIBCMT:winapinls.obj
 0002:00013570       ??_C@_1M@DAPFDGGB@?$AAa?$AAr?$AA?9?$AAd?$AAz?$AA?$AA@ 00459570     LIBCMT:winapinls.obj
 0002:0001357c       ??_C@_1M@FJNKGKIG@?$AAa?$AAr?$AA?9?$AAe?$AAg?$AA?$AA@ 0045957c     LIBCMT:winapinls.obj
 0002:00013588       ??_C@_1M@FLGKKCLO@?$AAa?$AAr?$AA?9?$AAi?$AAq?$AA?$AA@ 00459588     LIBCMT:winapinls.obj
 0002:00013594       ??_C@_1M@GNDIPALM@?$AAa?$AAr?$AA?9?$AAj?$AAo?$AA?$AA@ 00459594     LIBCMT:winapinls.obj
 0002:000135a0       ??_C@_1M@DDMJFMGJ@?$AAa?$AAr?$AA?9?$AAk?$AAw?$AA?$AA@ 004595a0     LIBCMT:winapinls.obj
 0002:000135ac       ??_C@_1M@EJALMLHM@?$AAa?$AAr?$AA?9?$AAl?$AAb?$AA?$AA@ 004595ac     LIBCMT:winapinls.obj
 0002:000135b8       ??_C@_1M@MOBDBLOC@?$AAa?$AAr?$AA?9?$AAl?$AAy?$AA?$AA@ 004595b8     LIBCMT:winapinls.obj
 0002:000135c4       ??_C@_1M@JAOCLHDH@?$AAa?$AAr?$AA?9?$AAm?$AAa?$AA?$AA@ 004595c4     LIBCMT:winapinls.obj
 0002:000135d0       ??_C@_1M@JHPMKJIE@?$AAa?$AAr?$AA?9?$AAo?$AAm?$AA?$AA@ 004595d0     LIBCMT:winapinls.obj
 0002:000135dc       ??_C@_1M@OEPGHFNH@?$AAa?$AAr?$AA?9?$AAq?$AAa?$AA?$AA@ 004595dc     LIBCMT:winapinls.obj
 0002:000135e8       ??_C@_1M@KJDONENM@?$AAa?$AAr?$AA?9?$AAs?$AAa?$AA?$AA@ 004595e8     LIBCMT:winapinls.obj
 0002:000135f4       ??_C@_1M@DMJDKLKM@?$AAa?$AAr?$AA?9?$AAs?$AAy?$AA?$AA@ 004595f4     LIBCMT:winapinls.obj
 0002:00013600       ??_C@_1M@OMFIPEDC@?$AAa?$AAr?$AA?9?$AAt?$AAn?$AA?$AA@ 00459600     LIBCMT:winapinls.obj
 0002:0001360c       ??_C@_1M@IHMHGAON@?$AAa?$AAr?$AA?9?$AAy?$AAe?$AA?$AA@ 0045960c     LIBCMT:winapinls.obj
 0002:00013618       ??_C@_1BG@KDCPGJGB@?$AAa?$AAz?$AA?9?$AAa?$AAz?$AA?9?$AAc?$AAy?$AAr?$AAl?$AA?$AA@ 00459618     LIBCMT:winapinls.obj
 0002:00013630       ??_C@_1BG@IBCKDDOE@?$AAa?$AAz?$AA?9?$AAa?$AAz?$AA?9?$AAl?$AAa?$AAt?$AAn?$AA?$AA@ 00459630     LIBCMT:winapinls.obj
 0002:00013648       ??_C@_1M@EGPFDCPD@?$AAb?$AAe?$AA?9?$AAb?$AAy?$AA?$AA@ 00459648     LIBCMT:winapinls.obj
 0002:00013654       ??_C@_1M@PCMGMCGC@?$AAb?$AAg?$AA?9?$AAb?$AAg?$AA?$AA@ 00459654     LIBCMT:winapinls.obj
 0002:00013660       ??_C@_1M@BJBMFGOB@?$AAb?$AAn?$AA?9?$AAi?$AAn?$AA?$AA@ 00459660     LIBCMT:winapinls.obj
 0002:0001366c       ??_C@_1BG@EAKMMACD@?$AAb?$AAs?$AA?9?$AAb?$AAa?$AA?9?$AAl?$AAa?$AAt?$AAn?$AA?$AA@ 0045966c     LIBCMT:winapinls.obj
 0002:00013684       ??_C@_1M@KGADAODK@?$AAc?$AAa?$AA?9?$AAe?$AAs?$AA?$AA@ 00459684     LIBCMT:winapinls.obj
 0002:00013690       ??_C@_1M@COAJPDHI@?$AAc?$AAs?$AA?9?$AAc?$AAz?$AA?$AA@ 00459690     LIBCMT:winapinls.obj
 0002:0001369c       ??_C@_1M@DHBHFONH@?$AAc?$AAy?$AA?9?$AAg?$AAb?$AA?$AA@ 0045969c     LIBCMT:winapinls.obj
 0002:000136a8       ??_C@_1M@IMGKELGA@?$AAd?$AAa?$AA?9?$AAd?$AAk?$AA?$AA@ 004596a8     LIBCMT:winapinls.obj
 0002:000136b4       ??_C@_1M@NNDGDNGA@?$AAd?$AAe?$AA?9?$AAa?$AAt?$AA?$AA@ 004596b4     LIBCMT:winapinls.obj
 0002:000136c0       ??_C@_1M@IKDBHEEM@?$AAd?$AAe?$AA?9?$AAc?$AAh?$AA?$AA@ 004596c0     LIBCMT:winapinls.obj
 0002:000136cc       ??_C@_1M@GFFOJMCJ@?$AAd?$AAe?$AA?9?$AAd?$AAe?$AA?$AA@ 004596cc     LIBCMT:winapinls.obj
 0002:000136d8       ??_C@_1M@MDNLKBPM@?$AAd?$AAe?$AA?9?$AAl?$AAi?$AA?$AA@ 004596d8     LIBCMT:winapinls.obj
 0002:000136e4       ??_C@_1M@NJBEEJNL@?$AAd?$AAe?$AA?9?$AAl?$AAu?$AA?$AA@ 004596e4     LIBCMT:winapinls.obj
 0002:000136f0       ??_C@_1O@GNNELBAP@?$AAd?$AAi?$AAv?$AA?9?$AAm?$AAv?$AA?$AA@ 004596f0     LIBCMT:winapinls.obj
 0002:00013700       ??_C@_1M@EJLEOGAE@?$AAe?$AAl?$AA?9?$AAg?$AAr?$AA?$AA@ 00459700     LIBCMT:winapinls.obj
 0002:0001370c       ??_C@_1M@GMPONJN@?$AAe?$AAn?$AA?9?$AAa?$AAu?$AA?$AA@ 0045970c     LIBCMT:winapinls.obj
 0002:00013718       ??_C@_1M@NIDIIPGF@?$AAe?$AAn?$AA?9?$AAb?$AAz?$AA?$AA@ 00459718     LIBCMT:winapinls.obj
 0002:00013724       ??_C@_1M@JEHMIMFO@?$AAe?$AAn?$AA?9?$AAc?$AAa?$AA?$AA@ 00459724     LIBCMT:winapinls.obj
 0002:00013730       ??_C@_1M@IGMJCDLA@?$AAe?$AAn?$AA?9?$AAc?$AAb?$AA?$AA@ 00459730     LIBCMT:winapinls.obj
 0002:0001373c       ??_C@_1M@BNFIGBKG@?$AAe?$AAn?$AA?9?$AAg?$AAb?$AA?$AA@ 0045973c     LIBCMT:winapinls.obj
 0002:00013748       ??_C@_1M@LKIFDIGP@?$AAe?$AAn?$AA?9?$AAi?$AAe?$AA?$AA@ 00459748     LIBCMT:winapinls.obj
 0002:00013754       ??_C@_1M@PJKFGCCO@?$AAe?$AAn?$AA?9?$AAj?$AAm?$AA?$AA@ 00459754     LIBCMT:winapinls.obj
 0002:00013760       ??_C@_1M@KPPKEPBO@?$AAe?$AAn?$AA?9?$AAn?$AAz?$AA?$AA@ 00459760     LIBCMT:winapinls.obj
 0002:0001376c       ??_C@_1M@GMDGLDOB@?$AAe?$AAn?$AA?9?$AAp?$AAh?$AA?$AA@ 0045976c     LIBCMT:winapinls.obj
 0002:00013778       ??_C@_1M@ONGIBJNA@?$AAe?$AAn?$AA?9?$AAt?$AAt?$AA?$AA@ 00459778     LIBCMT:winapinls.obj
 0002:00013784       ??_C@_1M@LLODPCMM@?$AAe?$AAn?$AA?9?$AAu?$AAs?$AA?$AA@ 00459784     LIBCMT:winapinls.obj
 0002:00013790       ??_C@_1M@LAKFNPAN@?$AAe?$AAn?$AA?9?$AAz?$AAa?$AA?$AA@ 00459790     LIBCMT:winapinls.obj
 0002:0001379c       ??_C@_1M@MFNHNHEO@?$AAe?$AAn?$AA?9?$AAz?$AAw?$AA?$AA@ 0045979c     LIBCMT:winapinls.obj
 0002:000137a8       ??_C@_1M@EJEINPHM@?$AAe?$AAs?$AA?9?$AAa?$AAr?$AA?$AA@ 004597a8     LIBCMT:winapinls.obj
 0002:000137b4       ??_C@_1M@GNKPCCJA@?$AAe?$AAs?$AA?9?$AAb?$AAo?$AA?$AA@ 004597b4     LIBCMT:winapinls.obj
 0002:000137c0       ??_C@_1M@LEEGFONL@?$AAe?$AAs?$AA?9?$AAc?$AAl?$AA?$AA@ 004597c0     LIBCMT:winapinls.obj
 0002:000137cc       ??_C@_1M@KGPDPBDF@?$AAe?$AAs?$AA?9?$AAc?$AAo?$AA?$AA@ 004597cc     LIBCMT:winapinls.obj
 0002:000137d8       ??_C@_1M@EIAHOHH@?$AAe?$AAs?$AA?9?$AAc?$AAr?$AA?$AA@ 004597d8     LIBCMT:winapinls.obj
 0002:000137e4       ??_C@_1M@LLPGMBIN@?$AAe?$AAs?$AA?9?$AAd?$AAo?$AA?$AA@ 004597e4     LIBCMT:winapinls.obj
 0002:000137f0       ??_C@_1M@DKHMKNJA@?$AAe?$AAs?$AA?9?$AAe?$AAc?$AA?$AA@ 004597f0     LIBCMT:winapinls.obj
 0002:000137fc       ??_C@_1M@GKGFPKAP@?$AAe?$AAs?$AA?9?$AAe?$AAs?$AA?$AA@ 004597fc     LIBCMT:winapinls.obj
 0002:00013808       ??_C@_1M@LKHKGDLN@?$AAe?$AAs?$AA?9?$AAg?$AAt?$AA?$AA@ 00459808     LIBCMT:winapinls.obj
 0002:00013814       ??_C@_1M@HEIIGGJD@?$AAe?$AAs?$AA?9?$AAh?$AAn?$AA?$AA@ 00459814     LIBCMT:winapinls.obj
 0002:00013820       ??_C@_1M@FBDHPPGD@?$AAe?$AAs?$AA?9?$AAm?$AAx?$AA?$AA@ 00459820     LIBCMT:winapinls.obj
 0002:0001382c       ??_C@_1M@DPAGLNDH@?$AAe?$AAs?$AA?9?$AAn?$AAi?$AA?$AA@ 0045982c     LIBCMT:winapinls.obj
 0002:00013838       ??_C@_1M@MDGOPGDD@?$AAe?$AAs?$AA?9?$AAp?$AAa?$AA?$AA@ 00459838     LIBCMT:winapinls.obj
 0002:00013844       ??_C@_1M@EMAMGBGE@?$AAe?$AAs?$AA?9?$AAp?$AAe?$AA?$AA@ 00459844     LIBCMT:winapinls.obj
 0002:00013850       ??_C@_1M@IBMCAOEC@?$AAe?$AAs?$AA?9?$AAp?$AAr?$AA?$AA@ 00459850     LIBCMT:winapinls.obj
 0002:0001385c       ??_C@_1M@FGMDIJED@?$AAe?$AAs?$AA?9?$AAp?$AAy?$AA?$AA@ 0045985c     LIBCMT:winapinls.obj
 0002:00013868       ??_C@_1M@IIDEOLLL@?$AAe?$AAs?$AA?9?$AAs?$AAv?$AA?$AA@ 00459868     LIBCMT:winapinls.obj
 0002:00013874       ??_C@_1M@GAOBIPA@?$AAe?$AAs?$AA?9?$AAu?$AAy?$AA?$AA@ 00459874     LIBCMT:winapinls.obj
 0002:00013880       ??_C@_1M@JKFFICHJ@?$AAe?$AAs?$AA?9?$AAv?$AAe?$AA?$AA@ 00459880     LIBCMT:winapinls.obj
 0002:0001388c       ??_C@_1M@PNMLOJDF@?$AAe?$AAt?$AA?9?$AAe?$AAe?$AA?$AA@ 0045988c     LIBCMT:winapinls.obj
 0002:00013898       ??_C@_1M@GHHLIKEI@?$AAe?$AAu?$AA?9?$AAe?$AAs?$AA?$AA@ 00459898     LIBCMT:winapinls.obj
 0002:000138a4       ??_C@_1M@PBNONODE@?$AAf?$AAa?$AA?9?$AAi?$AAr?$AA?$AA@ 004598a4     LIBCMT:winapinls.obj
 0002:000138b0       ??_C@_1M@JEEHPMIL@?$AAf?$AAi?$AA?9?$AAf?$AAi?$AA?$AA@ 004598b0     LIBCMT:winapinls.obj
 0002:000138bc       ??_C@_1M@LMDCNDBA@?$AAf?$AAo?$AA?9?$AAf?$AAo?$AA?$AA@ 004598bc     LIBCMT:winapinls.obj
 0002:000138c8       ??_C@_1M@JKEOHLDK@?$AAf?$AAr?$AA?9?$AAb?$AAe?$AA?$AA@ 004598c8     LIBCMT:winapinls.obj
 0002:000138d4       ??_C@_1M@NOHADPMI@?$AAf?$AAr?$AA?9?$AAc?$AAa?$AA?$AA@ 004598d4     LIBCMT:winapinls.obj
 0002:000138e0       ??_C@_1M@KDHIHAEC@?$AAf?$AAr?$AA?9?$AAc?$AAh?$AA?$AA@ 004598e0     LIBCMT:winapinls.obj
 0002:000138ec       ??_C@_1M@MMBBFGAK@?$AAf?$AAr?$AA?9?$AAf?$AAr?$AA?$AA@ 004598ec     LIBCMT:winapinls.obj
 0002:000138f8       ??_C@_1M@PAFNENNF@?$AAf?$AAr?$AA?9?$AAl?$AAu?$AA?$AA@ 004598f8     LIBCMT:winapinls.obj
 0002:00013904       ??_C@_1M@EOHDJGDD@?$AAf?$AAr?$AA?9?$AAm?$AAc?$AA?$AA@ 00459904     LIBCMT:winapinls.obj
 0002:00013910       ??_C@_1M@FAPLLOPF@?$AAg?$AAl?$AA?9?$AAe?$AAs?$AA?$AA@ 00459910     LIBCMT:winapinls.obj
 0002:0001391c       ??_C@_1M@FOPBFLOO@?$AAg?$AAu?$AA?9?$AAi?$AAn?$AA?$AA@ 0045991c     LIBCMT:winapinls.obj
 0002:00013928       ??_C@_1M@KBMCINPM@?$AAh?$AAe?$AA?9?$AAi?$AAl?$AA?$AA@ 00459928     LIBCMT:winapinls.obj
 0002:00013934       ??_C@_1M@BBPHKFPJ@?$AAh?$AAi?$AA?9?$AAi?$AAn?$AA?$AA@ 00459934     LIBCMT:winapinls.obj
 0002:00013940       ??_C@_1M@PMBNDPHD@?$AAh?$AAr?$AA?9?$AAb?$AAa?$AA?$AA@ 00459940     LIBCMT:winapinls.obj
 0002:0001394c       ??_C@_1M@BPCKOEGE@?$AAh?$AAr?$AA?9?$AAh?$AAr?$AA?$AA@ 0045994c     LIBCMT:winapinls.obj
 0002:00013958       ??_C@_1M@GACBMHKE@?$AAh?$AAu?$AA?9?$AAh?$AAu?$AA?$AA@ 00459958     LIBCMT:winapinls.obj
 0002:00013964       ??_C@_1M@MILPAJJC@?$AAh?$AAy?$AA?9?$AAa?$AAm?$AA?$AA@ 00459964     LIBCMT:winapinls.obj
 0002:00013970       ??_C@_1M@BABBICEC@?$AAi?$AAd?$AA?9?$AAi?$AAd?$AA?$AA@ 00459970     LIBCMT:winapinls.obj
 0002:0001397c       ??_C@_1M@BIKNHHPF@?$AAi?$AAs?$AA?9?$AAi?$AAs?$AA?$AA@ 0045997c     LIBCMT:winapinls.obj
 0002:00013988       ??_C@_1M@NMPCJPHE@?$AAi?$AAt?$AA?9?$AAc?$AAh?$AA?$AA@ 00459988     LIBCMT:winapinls.obj
 0002:00013994       ??_C@_1M@GHKGFEDF@?$AAi?$AAt?$AA?9?$AAi?$AAt?$AA?$AA@ 00459994     LIBCMT:winapinls.obj
 0002:000139a0       ??_C@_1M@NIEJCJJA@?$AAj?$AAa?$AA?9?$AAj?$AAp?$AA?$AA@ 004599a0     LIBCMT:winapinls.obj
 0002:000139ac       ??_C@_1M@JILFNBIM@?$AAk?$AAa?$AA?9?$AAg?$AAe?$AA?$AA@ 004599ac     LIBCMT:winapinls.obj
 0002:000139b8       ??_C@_1M@PACPMGPH@?$AAk?$AAk?$AA?9?$AAk?$AAz?$AA?$AA@ 004599b8     LIBCMT:winapinls.obj
 0002:000139c4       ??_C@_1M@IELFGMHA@?$AAk?$AAn?$AA?9?$AAi?$AAn?$AA?$AA@ 004599c4     LIBCMT:winapinls.obj
 0002:000139d0       ??_C@_1O@IBBJHCH@?$AAk?$AAo?$AAk?$AA?9?$AAi?$AAn?$AA?$AA@ 004599d0     LIBCMT:winapinls.obj
 0002:000139e0       ??_C@_1M@DMHAEOGC@?$AAk?$AAo?$AA?9?$AAk?$AAr?$AA?$AA@ 004599e0     LIBCMT:winapinls.obj
 0002:000139ec       ??_C@_1M@HBAHBIGA@?$AAk?$AAy?$AA?9?$AAk?$AAg?$AA?$AA@ 004599ec     LIBCMT:winapinls.obj
 0002:000139f8       ??_C@_1M@KPMILCJG@?$AAl?$AAt?$AA?9?$AAl?$AAt?$AA?$AA@ 004599f8     LIBCMT:winapinls.obj
 0002:00013a04       ??_C@_1M@BDEKKCA@?$AAl?$AAv?$AA?9?$AAl?$AAv?$AA?$AA@ 00459a04     LIBCMT:winapinls.obj
 0002:00013a10       ??_C@_1M@ELCKCCJJ@?$AAm?$AAi?$AA?9?$AAn?$AAz?$AA?$AA@ 00459a10     LIBCMT:winapinls.obj
 0002:00013a1c       ??_C@_1M@CBOOLAPA@?$AAm?$AAk?$AA?9?$AAm?$AAk?$AA?$AA@ 00459a1c     LIBCMT:winapinls.obj
 0002:00013a28       ??_C@_1M@GPHNBJKN@?$AAm?$AAl?$AA?9?$AAi?$AAn?$AA?$AA@ 00459a28     LIBCMT:winapinls.obj
 0002:00013a34       ??_C@_1M@PABJILIG@?$AAm?$AAn?$AA?9?$AAm?$AAn?$AA?$AA@ 00459a34     LIBCMT:winapinls.obj
 0002:00013a40       ??_C@_1M@FGBKKIPG@?$AAm?$AAr?$AA?9?$AAi?$AAn?$AA?$AA@ 00459a40     LIBCMT:winapinls.obj
 0002:00013a4c       ??_C@_1M@NDBPDDAL@?$AAm?$AAs?$AA?9?$AAb?$AAn?$AA?$AA@ 00459a4c     LIBCMT:winapinls.obj
 0002:00013a58       ??_C@_1M@OPIHOOPI@?$AAm?$AAs?$AA?9?$AAm?$AAy?$AA?$AA@ 00459a58     LIBCMT:winapinls.obj
 0002:00013a64       ??_C@_1M@PPDBCNFM@?$AAm?$AAt?$AA?9?$AAm?$AAt?$AA?$AA@ 00459a64     LIBCMT:winapinls.obj
 0002:00013a70       ??_C@_1M@KDJDKMDD@?$AAn?$AAb?$AA?9?$AAn?$AAo?$AA?$AA@ 00459a70     LIBCMT:winapinls.obj
 0002:00013a7c       ??_C@_1M@KFCFLMJP@?$AAn?$AAl?$AA?9?$AAb?$AAe?$AA?$AA@ 00459a7c     LIBCMT:winapinls.obj
 0002:00013a88       ??_C@_1M@KPOPDDGO@?$AAn?$AAl?$AA?9?$AAn?$AAl?$AA?$AA@ 00459a88     LIBCMT:winapinls.obj
 0002:00013a94       ??_C@_1M@LJKPEMLN@?$AAn?$AAn?$AA?9?$AAn?$AAo?$AA?$AA@ 00459a94     LIBCMT:winapinls.obj
 0002:00013aa0       ??_C@_1M@BDGHHBFL@?$AAn?$AAs?$AA?9?$AAz?$AAa?$AA?$AA@ 00459aa0     LIBCMT:winapinls.obj
 0002:00013aac       ??_C@_1M@IDEHOAP@?$AAp?$AAa?$AA?9?$AAi?$AAn?$AA?$AA@ 00459aac     LIBCMT:winapinls.obj
 0002:00013ab8       ??_C@_1M@HDBKGOGH@?$AAp?$AAl?$AA?9?$AAp?$AAl?$AA?$AA@ 00459ab8     LIBCMT:winapinls.obj
 0002:00013ac4       ??_C@_1M@LJLLCMEH@?$AAp?$AAt?$AA?9?$AAb?$AAr?$AA?$AA@ 00459ac4     LIBCMT:winapinls.obj
 0002:00013ad0       ??_C@_1M@NCMONAAL@?$AAp?$AAt?$AA?9?$AAp?$AAt?$AA?$AA@ 00459ad0     LIBCMT:winapinls.obj
 0002:00013adc       ??_C@_1O@EAKMAJDN@?$AAq?$AAu?$AAz?$AA?9?$AAb?$AAo?$AA?$AA@ 00459adc     LIBCMT:winapinls.obj
 0002:00013aec       ??_C@_1O@BHHPIGDN@?$AAq?$AAu?$AAz?$AA?9?$AAe?$AAc?$AA?$AA@ 00459aec     LIBCMT:winapinls.obj
 0002:00013afc       ??_C@_1O@GBAPEKMJ@?$AAq?$AAu?$AAz?$AA?9?$AAp?$AAe?$AA?$AA@ 00459afc     LIBCMT:winapinls.obj
 0002:00013b0c       ??_C@_1M@CLGLEFBO@?$AAr?$AAo?$AA?9?$AAr?$AAo?$AA?$AA@ 00459b0c     LIBCMT:winapinls.obj
 0002:00013b18       ??_C@_1M@CEEDODME@?$AAr?$AAu?$AA?9?$AAr?$AAu?$AA?$AA@ 00459b18     LIBCMT:winapinls.obj
 0002:00013b24       ??_C@_1M@HPKKKMPP@?$AAs?$AAa?$AA?9?$AAi?$AAn?$AA?$AA@ 00459b24     LIBCMT:winapinls.obj
 0002:00013b30       ??_C@_1M@BKMAIGOJ@?$AAs?$AAe?$AA?9?$AAf?$AAi?$AA?$AA@ 00459b30     LIBCMT:winapinls.obj
 0002:00013b3c       ??_C@_1M@NDPIFLFI@?$AAs?$AAe?$AA?9?$AAn?$AAo?$AA?$AA@ 00459b3c     LIBCMT:winapinls.obj
 0002:00013b48       ??_C@_1M@DANKKHJ@?$AAs?$AAe?$AA?9?$AAs?$AAe?$AA?$AA@ 00459b48     LIBCMT:winapinls.obj
 0002:00013b54       ??_C@_1M@PNBLONPJ@?$AAs?$AAk?$AA?9?$AAs?$AAk?$AA?$AA@ 00459b54     LIBCMT:winapinls.obj
 0002:00013b60       ??_C@_1M@LFMODOAL@?$AAs?$AAl?$AA?9?$AAs?$AAi?$AA?$AA@ 00459b60     LIBCMT:winapinls.obj
 0002:00013b6c       ??_C@_1O@DFKOMPG@?$AAs?$AAm?$AAa?$AA?9?$AAn?$AAo?$AA?$AA@ 00459b6c     LIBCMT:winapinls.obj
 0002:00013b7c       ??_C@_1O@NDKPBNNH@?$AAs?$AAm?$AAa?$AA?9?$AAs?$AAe?$AA?$AA@ 00459b7c     LIBCMT:winapinls.obj
 0002:00013b8c       ??_C@_1O@PLLKBHAB@?$AAs?$AAm?$AAj?$AA?9?$AAn?$AAo?$AA?$AA@ 00459b8c     LIBCMT:winapinls.obj
 0002:00013b9c       ??_C@_1O@CLEPOGCA@?$AAs?$AAm?$AAj?$AA?9?$AAs?$AAe?$AA?$AA@ 00459b9c     LIBCMT:winapinls.obj
 0002:00013bac       ??_C@_1O@DLGJGKMK@?$AAs?$AAm?$AAn?$AA?9?$AAf?$AAi?$AA?$AA@ 00459bac     LIBCMT:winapinls.obj
 0002:00013bbc       ??_C@_1O@OJDJGAJC@?$AAs?$AAm?$AAs?$AA?9?$AAf?$AAi?$AA?$AA@ 00459bbc     LIBCMT:winapinls.obj
 0002:00013bcc       ??_C@_1M@BOFOGHPB@?$AAs?$AAq?$AA?9?$AAa?$AAl?$AA?$AA@ 00459bcc     LIBCMT:winapinls.obj
 0002:00013bd8       ??_C@_1BG@LJBBIPGB@?$AAs?$AAr?$AA?9?$AAb?$AAa?$AA?9?$AAc?$AAy?$AAr?$AAl?$AA?$AA@ 00459bd8     LIBCMT:winapinls.obj
 0002:00013bf0       ??_C@_1BG@JLBENFOE@?$AAs?$AAr?$AA?9?$AAb?$AAa?$AA?9?$AAl?$AAa?$AAt?$AAn?$AA?$AA@ 00459bf0     LIBCMT:winapinls.obj
 0002:00013c08       ??_C@_1BG@KODPNHE@?$AAs?$AAr?$AA?9?$AAs?$AAp?$AA?9?$AAc?$AAy?$AAr?$AAl?$AA?$AA@ 00459c08     LIBCMT:winapinls.obj
 0002:00013c20       ??_C@_1BG@CIOGKHPB@?$AAs?$AAr?$AA?9?$AAs?$AAp?$AA?9?$AAl?$AAa?$AAt?$AAn?$AA?$AA@ 00459c20     LIBCMT:winapinls.obj
 0002:00013c38       ??_C@_1M@NGFJLMAC@?$AAs?$AAv?$AA?9?$AAf?$AAi?$AA?$AA@ 00459c38     LIBCMT:winapinls.obj
 0002:00013c44       ??_C@_1M@MPJEJAJC@?$AAs?$AAv?$AA?9?$AAs?$AAe?$AA?$AA@ 00459c44     LIBCMT:winapinls.obj
 0002:00013c50       ??_C@_1M@MPNDHLFK@?$AAs?$AAw?$AA?9?$AAk?$AAe?$AA?$AA@ 00459c50     LIBCMT:winapinls.obj
 0002:00013c5c       ??_C@_1O@KOHBJJI@?$AAs?$AAy?$AAr?$AA?9?$AAs?$AAy?$AA?$AA@ 00459c5c     LIBCMT:winapinls.obj
 0002:00013c6c       ??_C@_1M@LDCEFHA@?$AAt?$AAa?$AA?9?$AAi?$AAn?$AA?$AA@ 00459c6c     LIBCMT:winapinls.obj
 0002:00013c78       ??_C@_1M@CNJOFAK@?$AAt?$AAe?$AA?9?$AAi?$AAn?$AA?$AA@ 00459c78     LIBCMT:winapinls.obj
 0002:00013c84       ??_C@_1M@GNAECACD@?$AAt?$AAh?$AA?9?$AAt?$AAh?$AA?$AA@ 00459c84     LIBCMT:winapinls.obj
 0002:00013c90       ??_C@_1M@CHBIHOJO@?$AAt?$AAn?$AA?9?$AAz?$AAa?$AA?$AA@ 00459c90     LIBCMT:winapinls.obj
 0002:00013c9c       ??_C@_1M@GCCMIGPJ@?$AAt?$AAr?$AA?9?$AAt?$AAr?$AA?$AA@ 00459c9c     LIBCMT:winapinls.obj
 0002:00013ca8       ??_C@_1M@CELMCNBK@?$AAt?$AAt?$AA?9?$AAr?$AAu?$AA?$AA@ 00459ca8     LIBCMT:winapinls.obj
 0002:00013cb4       ??_C@_1M@KLMCELGA@?$AAu?$AAk?$AA?9?$AAu?$AAa?$AA?$AA@ 00459cb4     LIBCMT:winapinls.obj
 0002:00013cc0       ??_C@_1M@EPAJJAJF@?$AAu?$AAr?$AA?9?$AAp?$AAk?$AA?$AA@ 00459cc0     LIBCMT:winapinls.obj
 0002:00013ccc       ??_C@_1BG@GEGPMCDJ@?$AAu?$AAz?$AA?9?$AAu?$AAz?$AA?9?$AAc?$AAy?$AAr?$AAl?$AA?$AA@ 00459ccc     LIBCMT:winapinls.obj
 0002:00013ce4       ??_C@_1BG@EGGKJILM@?$AAu?$AAz?$AA?9?$AAu?$AAz?$AA?9?$AAl?$AAa?$AAt?$AAn?$AA?$AA@ 00459ce4     LIBCMT:winapinls.obj
 0002:00013cfc       ??_C@_1M@GFOCLFF@?$AAv?$AAi?$AA?9?$AAv?$AAn?$AA?$AA@ 00459cfc     LIBCMT:winapinls.obj
 0002:00013d08       ??_C@_1M@CPAMEDFI@?$AAx?$AAh?$AA?9?$AAz?$AAa?$AA?$AA@ 00459d08     LIBCMT:winapinls.obj
 0002:00013d14       ??_C@_1O@EBKIFIGN@?$AAz?$AAh?$AA?9?$AAc?$AAh?$AAs?$AA?$AA@ 00459d14     LIBCMT:winapinls.obj
 0002:00013d24       ??_C@_1O@NMHPGANE@?$AAz?$AAh?$AA?9?$AAc?$AAh?$AAt?$AA?$AA@ 00459d24     LIBCMT:winapinls.obj
 0002:00013d34       ??_C@_1M@LPINJOMC@?$AAz?$AAh?$AA?9?$AAc?$AAn?$AA?$AA@ 00459d34     LIBCMT:winapinls.obj
 0002:00013d40       ??_C@_1M@OCJEJODD@?$AAz?$AAh?$AA?9?$AAh?$AAk?$AA?$AA@ 00459d40     LIBCMT:winapinls.obj
 0002:00013d4c       ??_C@_1M@DNDLJINH@?$AAz?$AAh?$AA?9?$AAm?$AAo?$AA?$AA@ 00459d4c     LIBCMT:winapinls.obj
 0002:00013d58       ??_C@_1M@MBFDNDND@?$AAz?$AAh?$AA?9?$AAs?$AAg?$AA?$AA@ 00459d58     LIBCMT:winapinls.obj
 0002:00013d64       ??_C@_1M@IMEPLEPE@?$AAz?$AAh?$AA?9?$AAt?$AAw?$AA?$AA@ 00459d64     LIBCMT:winapinls.obj
 0002:00013d70       ??_C@_1M@BBGHNHJP@?$AAz?$AAu?$AA?9?$AAz?$AAa?$AA?$AA@ 00459d70     LIBCMT:winapinls.obj
 0002:00013d7c       ??_C@_02CLFPBFFP@TZ?$AA@   00459d7c     LIBCMT:tzset.obj
 0002:00013d80       ___dnames                  00459d80     LIBCMT:timeset.obj
 0002:00013d98       ___mnames                  00459d98     LIBCMT:timeset.obj
 0002:00013dc0       ??_C@_0M@HHGEPIBF@CreateFile2?$AA@ 00459dc0     LIBCMT:wopen.obj
 0002:00013dcc       ??_C@_06PGGFOGJG@1?$CDSNAN?$AA@ 00459dcc     LIBCMT:x10fout.obj
 0002:00013dd4       ??_C@_05PHHOCPM@1?$CDIND?$AA@ 00459dd4     LIBCMT:x10fout.obj
 0002:00013ddc       ??_C@_05DNEBIAHO@1?$CDINF?$AA@ 00459ddc     LIBCMT:x10fout.obj
 0002:00013de4       ??_C@_06IMKFLFPG@1?$CDQNAN?$AA@ 00459de4     LIBCMT:x10fout.obj
 0002:00013dec       ??_C@_1BA@BALFACEM@?$AAC?$AAO?$AAN?$AAO?$AAU?$AAT?$AA$?$AA?$AA@ 00459dec     LIBCMT:initcon.obj
 0002:00013e00       __load_config_used         00459e00     LIBCMT:loadcfg.obj
 0002:00013e50       ___safe_se_handler_table   00459e50     <linker-defined>
 0002:00013e5c       ___rtc_iaa                 00459e5c     LIBCMT:initsect.obj
 0002:00013e60       ___rtc_izz                 00459e60     LIBCMT:initsect.obj
 0002:00013e64       ___rtc_taa                 00459e64     LIBCMT:initsect.obj
 0002:00013e68       ___rtc_tzz                 00459e68     LIBCMT:initsect.obj
 0002:0001440c       __IMPORT_DESCRIPTOR_ADVAPI32 0045a40c     advapi32:ADVAPI32.dll
 0002:00014420       __IMPORT_DESCRIPTOR_USER32 0045a420     user32:USER32.dll
 0002:00014434       __IMPORT_DESCRIPTOR_KERNEL32 0045a434     kernel32:KERNEL32.dll
 0002:00014448       __NULL_IMPORT_DESCRIPTOR   0045a448     advapi32:ADVAPI32.dll
 0003:00000000       _backends                  0045b000     be_ssh.obj
 0003:00000574       _GSS_C_NT_USER_NAME        0045b574     pgssapi.obj
 0003:00000578       _GSS_C_NT_MACHINE_UID_NAME 0045b578     pgssapi.obj
 0003:0000057c       _GSS_C_NT_STRING_UID_NAME  0045b57c     pgssapi.obj
 0003:00000580       _GSS_C_NT_HOSTBASED_SERVICE_X 0045b580     pgssapi.obj
 0003:00000584       _GSS_C_NT_HOSTBASED_SERVICE 0045b584     pgssapi.obj
 0003:00000588       _GSS_C_NT_ANONYMOUS        0045b588     pgssapi.obj
 0003:0000058c       _GSS_C_NT_EXPORT_NAME      0045b58c     pgssapi.obj
 0003:000005f8       _ssh_backend               0045b5f8     ssh.obj
 0003:00000644       _Zero                      0045b644     sshbn.obj
 0003:00000648       _One                       0045b648     sshbn.obj
 0003:0000064c       _bnOne                     0045b64c     sshbn.obj
 0003:00000654       _ONE                       0045b654     sshcrcda.obj
 0003:00000658       _ver                       0045b658     version.obj
 0003:00000684       _sshver                    0045b684     version.obj
 0003:00000710       ___security_cookie         0045b710     LIBCMT:gs_cookie.obj
 0003:00000714       ___security_cookie_complement 0045b714     LIBCMT:gs_cookie.obj
 0003:00000718       __fltused                  0045b718     LIBCMT:fpinit.obj
 0003:0000071c       __ldused                   0045b71c     LIBCMT:fpinit.obj
 0003:00000720       __iob                      0045b720     LIBCMT:_file.obj
 0003:000009a0       ___abort_behavior          0045b9a0     LIBCMT:abort.obj
 0003:00000b20       ___badioinfo               0045bb20     LIBCMT:ioinit.obj
 0003:00000b60       ___isa_enabled             0045bb60     LIBCMT:cpu_disp.obj
 0003:00000b64       __cfltcvt_tab              0045bb64     LIBCMT:cmiscdat.obj
 0003:00000cb0       ___nullstring              0045bcb0     LIBCMT:output.obj
 0003:00000cb4       ___wnullstring             0045bcb4     LIBCMT:output.obj
 0003:00000cb8       ___ptmbcinfo               0045bcb8     LIBCMT:mbctype.obj
 0003:00000db0       __mbctype                  0045bdb0     LIBCMT:mbctype.obj
 0003:00000eb8       __mbcasemap                0045beb8     LIBCMT:mbctype.obj
 0003:00000fb8       ___initialmbcinfo          0045bfb8     LIBCMT:mbctype.obj
 0003:000011d8       ___flsindex                0045c1d8     LIBCMT:tidtable.obj
 0003:000011dc       ___wclocalestr             0045c1dc     LIBCMT:nlsdata.obj
 0003:000011e0       ___lc_time_c               0045c1e0     LIBCMT:nlsdata.obj
 0003:00001344       ___ptlocinfo               0045c344     LIBCMT:nlsdata.obj
 0003:00001348       ___initiallocinfo          0045c348     LIBCMT:nlsdata.obj
 0003:00001400       ___initiallocalestructinfo 0045c400     LIBCMT:nlsdata.obj
 0003:00001408       ___mb_cur_max              0045c408     LIBCMT:nlsdata.obj
 0003:0000140c       ___globallocalestatus      0045c40c     LIBCMT:glstatus.obj
 0003:00001418       __lookuptrailbytes         0045c418     LIBCMT:read.obj
 0003:00001520       __NLG_Destination          0045c520     LIBCMT:exsup.obj
 0003:00001530       ___lconv                   0045c530     LIBCMT:lconv.obj
 0003:00001534       ___lconv_static_decimal    0045c534     LIBCMT:lconv.obj
 0003:00001538       ___lconv_c                 0045c538     LIBCMT:lconv.obj
 0003:00001588       ___lconv_static_W_decimal  0045c588     LIBCMT:lconv.obj
 0003:0000158c       __pctype                   0045c58c     LIBCMT:ctype.obj
 0003:00001590       __pwctype                  0045c590     LIBCMT:ctype.obj
 0003:000015b8       __timezone                 0045c5b8     LIBCMT:timeset.obj
 0003:000015bc       __daylight                 0045c5bc     LIBCMT:timeset.obj
 0003:000015c0       __dstbias                  0045c5c0     LIBCMT:timeset.obj
 0003:00001648       __tzname                   0045c648     LIBCMT:timeset.obj
 0003:00001680       __confh                    0045c680     LIBCMT:initcon.obj
 0003:00001684       __days                     0045c684     LIBCMT:days.obj
 0003:000016b8       __lpdays                   0045c6b8     LIBCMT:days.obj
 0003:000016f0       __pow10pos                 0045c6f0     LIBCMT:constpow.obj
 0003:00001850       __pow10neg                 0045c850     LIBCMT:constpow.obj
 0003:000019e0       _cmdline_tooltype          0045c9e0     cmdline.obj
 0003:00001a30       _sent_eof                  0045ca30     pscp.obj
 0003:00001b40       _bnZero                    0045cb40     sshbn.obj
 0003:00001b44       _ZERO                      0045cb44     sshcrcda.obj
 0003:00001b48       _ssh2_wrong_passphrase     0045cb48     sshpubk.obj
 0003:00001b58       _random_active             0045cb58     sshrand.obj
 0003:0000207c       _console_batch_mode        0045d07c     wincons.obj
 0003:00002084       _gsslogmsg                 0045d084     wingss.obj
 0003:00002790       _advapi_initialised        0045d790     winpgntc.obj
 0003:000027b4       ___fastflag                0045d7b4     LIBCMT:fpinit.obj
 0003:000027b8       __cflush                   0045d7b8     LIBCMT:_file.obj
 0003:00002ae0       __umaskval                 0045dae0     LIBCMT:crt0dat.obj
 0003:00002ae4       __exitflag                 0045dae4     LIBCMT:crt0dat.obj
 0003:00002ae8       __C_Termination_Done       0045dae8     LIBCMT:crt0dat.obj
 0003:00002aec       ___winitenv                0045daec     LIBCMT:crt0dat.obj
 0003:00002af0       ___initenv                 0045daf0     LIBCMT:crt0dat.obj
 0003:00002af4       __C_Exit_Done              0045daf4     LIBCMT:crt0dat.obj
 0003:00002af8       ___argc                    0045daf8     LIBCMT:crt0dat.obj
 0003:00002afc       ___argv                    0045dafc     LIBCMT:crt0dat.obj
 0003:00002b00       ___wargv                   0045db00     LIBCMT:crt0dat.obj
 0003:00002b04       __environ                  0045db04     LIBCMT:crt0dat.obj
 0003:00002b08       __wenviron                 0045db08     LIBCMT:crt0dat.obj
 0003:00002b0c       __pgmptr                   0045db0c     LIBCMT:crt0dat.obj
 0003:00002b10       __wpgmptr                  0045db10     LIBCMT:crt0dat.obj
 0003:00002b18       __aenvptr                  0045db18     LIBCMT:crt0.obj
 0003:00002b1c       __wenvptr                  0045db1c     LIBCMT:crt0.obj
 0003:00002b20       ___pInvalidArgHandler      0045db20     LIBCMT:invarg.obj
 0003:00002b28       ___pioinfo                 0045db28     LIBCMT:ioinit.obj
 0003:00002c28       ___isa_available           0045dc28     LIBCMT:cpu_disp.obj
 0003:00002c2c       ___favor                   0045dc2c     LIBCMT:cpu_disp.obj
 0003:00002c30       ___error_mode              0045dc30     LIBCMT:errmode.obj
 0003:00002c60       ___app_type                0045dc60     LIBCMT:crt0msg.obj
 0003:000033e0       __maxwait                  0045e3e0     LIBCMT:crtheap.obj
 0003:000033e4       __stdbuf                   0045e3e4     LIBCMT:_sftbuf.obj
 0003:000033ec       ___mblocalename            0045e3ec     LIBCMT:mbctype.obj
 0003:000033f0       ___mbcodepage              0045e3f0     LIBCMT:mbctype.obj
 0003:000033f4       ___ismbcodepage            0045e3f4     LIBCMT:mbctype.obj
 0003:000033f8       ___mbulinfo                0045e3f8     LIBCMT:mbctype.obj
 0003:00003408       ___locale_changed          0045e408     LIBCMT:wsetloca.obj
 0003:0000340c       __crtheap                  0045e40c     LIBCMT:heapinit.obj
 0003:00003410       ?_pnhHeap@@3P6AHI@ZA       0045e410     LIBCMT:handler.obj
 0003:00003414       __newmode                  0045e414     LIBCMT:_newmode.obj
 0003:00003418       ?__pInconsistency@@3P6AXXZA 0045e418     LIBCMT:hooks.obj
 0003:0000341c       ___pPurecall               0045e41c     LIBCMT:inithelp.obj
 0003:00003530       __commode                  0045e530     LIBCMT:ncommode.obj
 0003:00003534       __outputformat             0045e534     LIBCMT:outputformat.obj
 0003:00003538       ___lconv_static_null       0045e538     LIBCMT:lconv.obj
 0003:0000353c       ___lconv_static_W_null     0045e53c     LIBCMT:lconv.obj
 0003:00003604       __fmode                    0045e604     LIBCMT:txtmode.obj
 0003:00003608       _p_GetSecurityInfo         0045e608     <common>
 0003:0000360c       _next_noise_collection     0045e60c     <common>
 0003:00003610       _p_WSAEnumNetworkEvents    0045e610     <common>
 0003:00003614       _p_WSAGetLastError         0045e614     <common>
 0003:00003618       _p_select                  0045e618     <common>
 0003:0000361c       _p_WSAEventSelect          0045e61c     <common>
 0003:00003620       _p_WSAAsyncSelect          0045e620     <common>
 0003:00003624       _cmdline_session_name      0045e624     <common>
 0003:00003628       _loaded_session            0045e628     <common>
 0003:0000362c       _default_port              0045e62c     <common>
 0003:00003630       _default_protocol          0045e630     <common>
 0003:00003634       _flags                     0045e634     <common>
 0003:00003640       _encodedKERNEL32Functions  0045e640     <common>
 0003:000036b4       __debugger_hook_dummy      0045e6b4     <common>
 0003:000036b8       __nhandle                  0045e6b8     <common>
 0003:000036bc       __pDestructExceptionObject 0045e6bc     <common>
 0003:000036c0       __acmdln                   0045e6c0     <common>
 0003:000036c4       ___dyn_tls_init_callback   0045e6c4     <common>
 0003:000036c8       ___onexitend               0045e6c8     <common>
 0003:000036cc       ___onexitbegin             0045e6cc     <common>
 0003:000036d0       ___mbctype_initialized     0045e6d0     <common>
 0003:000036d4       ___env_initialized         0045e6d4     <common>
 0003:000036d8       ___piob                    0045e6d8     <common>
 0003:000036dc       __nstream                  0045e6dc     <common>
 0003:000036e0       __bufin                    0045e6e0     <common>

 entry point at        0001:00035103

 Static symbols

 0001:00000000       _cmdline_check_unavailable 00401000 f   cmdline.obj
 0001:00000e1a       _cmdline_save_param        00401e1a f   cmdline.obj
 0001:00000e7f       _conf_clear                00401e7f f   conf.obj
 0001:00000ea9       _conf_cmp                  00401ea9 f   conf.obj
 0001:0000138b       _conf_insert               0040238b f   conf.obj
 0001:000016b7       _free_entry                004026b7 f   conf.obj
 0001:000021a7       _logfopen_callback         004031a7 f   logging.obj
 0001:00002342       _logprintf                 00403342 f   logging.obj
 0001:0000236f       _logwrite                  0040336f f   logging.obj
 0001:000023f4       _xlatlognam                004033f4 f   logging.obj
 0001:00002cdd       _pinger_schedule           00403cdd f   pinger.obj
 0001:00002d19       _pinger_timer              00403d19 f   pinger.obj
 0001:00002d47       _pfd_closing               00403d47 f   portfwd.obj
 0001:00002d6f       _pfd_receive               00403d6f f   portfwd.obj
 0001:000031c9       _pfd_sent                  004041c9 f   portfwd.obj
 0001:000031e2       _pfd_accepting             004041e2 f   portfwd.obj
 0001:0000352e       _sk_tcp_plug               0040452e f   proxy.obj
 0001:0000352e       _sk_proxy_plug             0040452e f   proxy.obj
 0001:00003541       _sk_proxy_close            00404541 f   proxy.obj
 0001:00003562       _sk_proxy_write            00404562 f   proxy.obj
 0001:0000359e       _sk_proxy_write_oob        0040459e f   proxy.obj
 0001:000035e6       _sk_proxy_write_eof        004045e6 f   proxy.obj
 0001:00003603       _sk_proxy_flush            00404603 f   proxy.obj
 0001:00003620       _sk_proxy_set_private_ptr  00404620 f   proxy.obj
 0001:00003634       _sk_proxy_get_private_ptr  00404634 f   proxy.obj
 0001:00003643       _sk_proxy_set_frozen       00404643 f   proxy.obj
 0001:00003726       _sk_proxy_socket_error     00404726 f   proxy.obj
 0001:00003740       _plug_proxy_log            00404740 f   proxy.obj
 0001:00003765       _plug_proxy_closing        00404765 f   proxy.obj
 0001:000037a7       _plug_proxy_receive        004047a7 f   proxy.obj
 0001:000037fb       _plug_proxy_sent           004047fb f   proxy.obj
 0001:00003827       _plug_proxy_accepting      00404827 f   proxy.obj
 0001:00003eb3       _get_line_end              00404eb3 f   proxy.obj
 0001:0000426b       _proxy_for_destination     0040526b f   proxy.obj
 0001:00004fd2       $LN83                      00405fd2     proxy.obj
 0001:000050a0       _bump                      004060a0 f   pscp.obj
 0001:0000517e       _colon                     0040617e f   pscp.obj
 0001:00005221       _do_cmd                    00406221 f   pscp.obj
 0001:000056db       _get_dir_list              004066db f   pscp.obj
 0001:000057e3       _is_dots                   004067e3 f   pscp.obj
 0001:00005874       _print_stats               00406874 f   pscp.obj
 0001:00005e0e       _response                  00406e0e f   pscp.obj
 0001:00005ef3       _rsource                   00406ef3 f   pscp.obj
 0001:00005ff0       _run_err                   00406ff0 f   pscp.obj
 0001:000076ba       _sftp_ls_compare           004086ba f   pscp.obj
 0001:000076f0       _sink                      004086f0 f   pscp.obj
 0001:00007b94       _source                    00408b94 f   pscp.obj
 0001:00007f4d       _ssh_scp_init              00408f4d f   pscp.obj
 0001:00007fd0       _ssh_scp_recv              00408fd0 f   pscp.obj
 0001:00008089       _stripslashes              00409089 f   pscp.obj
 0001:000080d3       _tell_str                  004090d3 f   pscp.obj
 0001:00008105       _tell_user                 00409105 f   pscp.obj
 0001:00008142       _tolocal                   00409142 f   pscp.obj
 0001:00008244       _toremote                  00409244 f   pscp.obj
 0001:00008428       _usage                     00409428 f   pscp.obj
 0001:000085d4       _gppfile                   004095d4 f   settings.obj
 0001:0000860e       _gppfont                   0040960e f   settings.obj
 0001:00008648       _gppi                      00409648 f   settings.obj
 0001:0000866a       _gppi_raw                  0040966a f   settings.obj
 0001:00008689       _gppmap                    00409689 f   settings.obj
 0001:00008786       _gpps                      00409786 f   settings.obj
 0001:000087b2       _gpps_raw                  004097b2 f   settings.obj
 0001:000087e7       _gprefs                    004097e7 f   settings.obj
 0001:00009a31       _fxp_got_status            0040aa31 f   sftp.obj
 0001:0000a0d2       _mkstr                     0040b0d2 f   sftp.obj
 0001:0000a0fc       _sftp_alloc_request        0040b0fc f   sftp.obj
 0001:0000a245       _sftp_pkt_addattrs         0040b245 f   sftp.obj
 0001:0000a2c0       _sftp_pkt_adddata          0040b2c0 f   sftp.obj
 0001:0000a304       _sftp_pkt_addstring        0040b304 f   sftp.obj
 0001:0000a313       _sftp_pkt_addstring_data   0040b313 f   sftp.obj
 0001:0000a36d       _sftp_pkt_addstring_start  0040b36d f   sftp.obj
 0001:0000a384       _sftp_pkt_addstring_str    0040b384 f   sftp.obj
 0001:0000a3e4       _sftp_pkt_adduint32        0040b3e4 f   sftp.obj
 0001:0000a418       _sftp_pkt_adduint64        0040b418 f   sftp.obj
 0001:0000a482       _sftp_pkt_free             0040b482 f   sftp.obj
 0001:0000a49d       _sftp_pkt_getattrs         0040b49d f   sftp.obj
 0001:0000a5bb       _sftp_pkt_getstring        0040b5bb f   sftp.obj
 0001:0000a62d       _sftp_pkt_getuint32        0040b62d f   sftp.obj
 0001:0000a678       _sftp_pkt_init             0040b678 f   sftp.obj
 0001:0000a757       _sftp_reqcmp               0040b757 f   sftp.obj
 0001:0000a757       _sftp_reqfind              0040b757 f   sftp.obj
 0001:0000aa57       _xfer_init                 0040ba57 f   sftp.obj
 0001:0000abd2       _ssh_comp_none_disable     0040bbd2 f   ssh.obj
 0001:0000abd2       _ssh_comp_none_block       0040bbd2 f   ssh.obj
 0001:0000abd2       _ssh_comp_none_init        0040bbd2 f   ssh.obj
 0001:0000abd5       _ssh_size                  0040bbd5 f   ssh.obj
 0001:0000aca2       _ssh_special               0040bca2 f   ssh.obj
 0001:0000af14       _ssh_sendbuffer            0040bf14 f   ssh.obj
 0001:0000af6a       _ssh_init                  0040bf6a f   ssh.obj
 0001:0000b1b5       _ssh_free                  0040c1b5 f   ssh.obj
 0001:0000b4ac       _ssh_reconfig              0040c4ac f   ssh.obj
 0001:0000b672       _ssh_send                  0040c672 f   ssh.obj
 0001:0000b6a7       _ssh_get_specials          0040c6a7 f   ssh.obj
 0001:0000b7d1       _ssh_unthrottle            0040c7d1 f   ssh.obj
 0001:0000b869       _ssh_connected             0040c869 f   ssh.obj
 0001:0000b876       _ssh_log                   0040c876 f   ssh.obj
 0001:0000b8f7       _ssh_sendok                0040c8f7 f   ssh.obj
 0001:0000b902       _ssh_ldisc                 0040c902 f   ssh.obj
 0001:0000b929       _ssh_closing               0040c929 f   ssh.obj
 0001:0000b9c0       _ssh_provide_ldisc         0040c9c0 f   ssh.obj
 0001:0000b9cc       _ssh_provide_logctx        0040c9cc f   ssh.obj
 0001:0000b9d8       _ssh_return_exitcode       0040c9d8 f   ssh.obj
 0001:0000b9f7       _ssh_receive               0040c9f7 f   ssh.obj
 0001:0000ba29       _ssh_cfg_info              0040ca29 f   ssh.obj
 0001:0000ba34       _ssh_sent                  0040ca34 f   ssh.obj
 0001:0000ba51       _alloc_channel_id          0040ca51 f   ssh.obj
 0001:0000bae1       _bomb_out                  0040cae1 f   ssh.obj
 0001:0000bb1f       _c_write                   0040cb1f f   ssh.obj
 0001:0000bb50       _c_write_stderr            0040cb50 f   ssh.obj
 0001:0000bb93       _c_write_str               0040cb93 f   ssh.obj
 0001:0000bbae       _connect_to_host           0040cbae f   ssh.obj
 0001:0000bd56       _construct_packet          0040cd56 f   ssh.obj
 0001:0000be56       $LN28                      0040ce56     ssh.obj
 0001:0000be76       _defer_packet              0040ce76 f   ssh.obj
 0001:0000be96       _do_ssh1_connection        0040ce96 f   ssh.obj
 0001:0000c4a5       _do_ssh1_login             0040d4a5 f   ssh.obj
 0001:0000ddb6       _do_ssh2_authconn          0040edb6 f   ssh.obj
 0001:00010636       _do_ssh2_transport         00411636 f   ssh.obj
 0001:000121e6       _do_ssh_init               004131e6 f   ssh.obj
 0001:00012542       _dont_log_password         00413542 f   ssh.obj
 0001:00012565       _first_in_commasep_string  00413565 f   ssh.obj
 0001:000125ae       _hash_mpint                004135ae f   ssh.obj
 0001:000125dc       _hash_string               004135dc f   ssh.obj
 0001:0001261f       _in_commasep_string        0041361f f   ssh.obj
 0001:0001267e       _logeventf                 0041367e f   ssh.obj
 0001:000126ec       _parse_ttymodes            004136ec f   ssh.obj
 0001:0001276b       _s_write                   0041376b f   ssh.obj
 0001:000127a8       _s_wrpkt                   004137a8 f   ssh.obj
 0001:000127ef       _s_wrpkt_defer             004137ef f   ssh.obj
 0001:0001286a       _s_wrpkt_prepare           0041386a f   ssh.obj
 0001:00012a19       _send_packet               00413a19 f   ssh.obj
 0001:00012a39       _ssh1_msg_channel_close    00413a39 f   ssh.obj
 0001:00012b79       _ssh1_msg_channel_data     00413b79 f   ssh.obj
 0001:00012d36       _ssh1_msg_channel_open_confirmation 00413d36 f   ssh.obj
 0001:00012da3       _ssh1_msg_channel_open_failure 00413da3 f   ssh.obj
 0001:00012e0d       _ssh1_msg_debug            00413e0d f   ssh.obj
 0001:00012e3a       _ssh1_msg_disconnect       00413e3a f   ssh.obj
 0001:00012e6d       _ssh1_msg_port_open        00413e6d f   ssh.obj
 0001:00012fe6       _ssh1_pkt_getmp            00413fe6 f   ssh.obj
 0001:00013017       _ssh1_pkt_getrsakey        00414017 f   ssh.obj
 0001:00013069       _ssh1_pkt_init             00414069 f   ssh.obj
 0001:0001308f       _ssh1_pkt_type             0041408f f   ssh.obj
 0001:0001325c       _ssh1_protocol             0041425c f   ssh.obj
 0001:000132c5       _ssh1_rdpkt                004142c5 f   ssh.obj
 0001:000136bf       _ssh1_send_ttymode         004146bf f   ssh.obj
 0001:00013741       _ssh1_smsg_agent_open      00414741 f   ssh.obj
 0001:000137c9       _ssh1_smsg_exit_status     004147c9 f   ssh.obj
 0001:00013806       _ssh1_smsg_stdout_stderr_data 00414806 f   ssh.obj
 0001:00013884       _ssh1_smsg_x11_open        00414884 f   ssh.obj
 0001:00013990       _ssh2_add_channel_data     00414990 f   ssh.obj
 0001:000139a9       _ssh2_add_sigblob          004149a9 f   ssh.obj
 0001:00013b0d       _ssh2_channel_check_close  00414b0d f   ssh.obj
 0001:00013b82       _ssh2_channel_got_eof      00414b82 f   ssh.obj
 0001:00013c0b       _ssh2_channel_init         00414c0b f   ssh.obj
 0001:00013c69       _ssh2_channel_msg          00414c69 f   ssh.obj
 0001:00013d02       _ssh2_chanopen_init        00414d02 f   ssh.obj
 0001:00013d40       _ssh2_chanreq_init         00414d40 f   ssh.obj
 0001:00013dae       _ssh2_handle_winadj_response 00414dae f   ssh.obj
 0001:00013dd2       _ssh2_mkkey                00414dd2 f   ssh.obj
 0001:00013e68       _ssh2_mpint_fmt            00414e68 f   ssh.obj
 0001:00013eea       _ssh2_msg_authconn         00414eea f   ssh.obj
 0001:00013eff       _ssh2_msg_channel_close    00414eff f   ssh.obj
 0001:00013f72       _ssh2_msg_channel_data     00414f72 f   ssh.obj
 0001:000141c4       _ssh2_msg_channel_eof      004151c4 f   ssh.obj
 0001:000141df       _ssh2_msg_channel_open     004151df f   ssh.obj
 0001:00014548       _ssh2_msg_channel_open_confirmation 00415548 f   ssh.obj
 0001:000145b3       _ssh2_msg_channel_open_failure 004155b3 f   ssh.obj
 0001:0001462e       _ssh2_msg_channel_request  0041562e f   ssh.obj
 0001:00014a62       _ssh2_msg_channel_response 00415a62 f   ssh.obj
 0001:00014aab       _ssh2_msg_channel_window_adjust 00415aab f   ssh.obj
 0001:00014ae2       _ssh2_msg_debug            00415ae2 f   ssh.obj
 0001:00014b17       _ssh2_msg_disconnect       00415b17 f   ssh.obj
 0001:00014bd6       _ssh2_msg_global_request   00415bd6 f   ssh.obj
 0001:00014c0f       _ssh2_msg_something_unimplemented 00415c0f f   ssh.obj
 0001:00014c35       _ssh2_msg_transport        00415c35 f   ssh.obj
 0001:00014c4a       _ssh2_msg_unexpected       00415c4a f   ssh.obj
 0001:00014c8e       _ssh2_msg_userauth_banner  00415c8e f   ssh.obj
 0001:00014cf0       _ssh2_pkt_construct        00415cf0 f   ssh.obj
 0001:00014edd       _ssh2_pkt_defer            00415edd f   ssh.obj
 0001:00014f07       _ssh2_pkt_defer_noqueue    00415f07 f   ssh.obj
 0001:00014fc0       _ssh2_pkt_getbool          00415fc0 f   ssh.obj
 0001:00014fe8       _ssh2_pkt_getmp            00415fe8 f   ssh.obj
 0001:0001501d       _ssh2_pkt_init             0041601d f   ssh.obj
 0001:00015047       _ssh2_pkt_queue            00416047 f   ssh.obj
 0001:000150b5       _ssh2_pkt_queuesend        004160b5 f   ssh.obj
 0001:00015114       _ssh2_pkt_send             00416114 f   ssh.obj
 0001:00015135       _ssh2_pkt_send_noqueue     00416135 f   ssh.obj
 0001:000151ca       _ssh2_pkt_send_with_padding 004161ca f   ssh.obj
 0001:0001525f       _ssh2_pkt_type             0041625f f   ssh.obj
 0001:000154ef       _ssh2_protocol             004164ef f   ssh.obj
 0001:00015572       _ssh2_protocol_setup       00416572 f   ssh.obj
 0001:00015661       _ssh2_queue_chanreq_handler 00416661 f   ssh.obj
 0001:000156b9       _ssh2_rdpkt                004166b9 f   ssh.obj
 0001:00015d59       _ssh2_response_authconn    00416d59 f   ssh.obj
 0001:00015d70       _ssh2_send_ttymode         00416d70 f   ssh.obj
 0001:00015df2       _ssh2_set_window           00416df2 f   ssh.obj
 0001:00015ea6       _ssh2_setup_agent          00416ea6 f   ssh.obj
 0001:00015f4d       _ssh2_setup_env            00416f4d f   ssh.obj
 0001:000160ab       _ssh2_setup_pty            004170ab f   ssh.obj
 0001:0001622c       _ssh2_setup_x11            0041722c f   ssh.obj
 0001:0001631f       _ssh2_timer                0041731f f   ssh.obj
 0001:00016369       _ssh2_try_send             00417369 f   ssh.obj
 0001:00016438       _ssh2_try_send_and_unthrottle 00417438 f   ssh.obj
 0001:0001646d       _ssh_agent_callback        0041746d f   ssh.obj
 0001:000164a5       _ssh_agentf_callback       004174a5 f   ssh.obj
 0001:00016522       _ssh_cache_conf_values     00417522 f   ssh.obj
 0001:0001653e       _ssh_channel_destroy       0041753e f   ssh.obj
 0001:00016631       _ssh_channel_try_eof       00417631 f   ssh.obj
 0001:000166c1       _ssh_detect_bugs           004176c1 f   ssh.obj
 0001:00016bb4       _ssh_dialog_callback       00417bb4 f   ssh.obj
 0001:00016beb       _ssh_disconnect            00417beb f   ssh.obj
 0001:00016ca7       _ssh_do_close              00417ca7 f   ssh.obj
 0001:00016dee       _ssh_fix_verstring         00417dee f   ssh.obj
 0001:00016e97       _ssh_free_packet           00417e97 f   ssh.obj
 0001:00016eae       _ssh_gotdata               00417eae f   ssh.obj
 0001:00016f95       _ssh_new_packet            00417f95 f   ssh.obj
 0001:00016fb5       _ssh2_pkt_addbool          00417fb5 f   ssh.obj
 0001:00016fb5       _ssh_pkt_addbyte           00417fb5 f   ssh.obj
 0001:00016fc9       _ssh_pkt_adddata           00417fc9 f   ssh.obj
 0001:00017060       _ssh_pkt_addstring         00418060 f   ssh.obj
 0001:0001706f       _ssh_pkt_addstring_data    0041806f f   ssh.obj
 0001:000170c9       _ssh_pkt_addstring_start   004180c9 f   ssh.obj
 0001:000170df       _ssh_pkt_addstring_str     004180df f   ssh.obj
 0001:0001713f       _ssh_pkt_adduint32         0041813f f   ssh.obj
 0001:00017173       _ssh_pkt_defersend         00418173 f   ssh.obj
 0001:00017205       _ssh_pkt_ensure            00418205 f   ssh.obj
 0001:0001724b       _ssh_pkt_getstring         0041824b f   ssh.obj
 0001:000172b7       _ssh_pkt_getuint32         004182b7 f   ssh.obj
 0001:000172fd       _ssh_portcmp               004182fd f   ssh.obj
 0001:000173b7       _ssh_process_incoming_data 004183b7 f   ssh.obj
 0001:000173ed       _ssh_process_queued_incoming_data 004183ed f   ssh.obj
 0001:0001747c       _ssh_queue_handler         0041847c f   ssh.obj
 0001:00017510       _ssh_queueing_handler      00418510 f   ssh.obj
 0001:0001764f       _ssh_rportcmp_ssh1         0041864f f   ssh.obj
 0001:0001768d       _ssh_rportcmp_ssh2         0041868d f   ssh.obj
 0001:000176a4       _ssh_rportfwd_succfail     004186a4 f   ssh.obj
 0001:000177ca       _ssh_send_verstring        004187ca f   ssh.obj
 0001:00017886       _ssh_set_frozen            00418886 f   ssh.obj
 0001:000178a9       _ssh_setup_portfwd         004188a9 f   ssh.obj
 0001:00018083       _ssh_throttle_all          00419083 f   ssh.obj
 0001:000180ed       _ssh_throttle_conn         004190ed f   ssh.obj
 0001:00018145       _ssh_tty_parse_boolean     00419145 f   ssh.obj
 0001:000181ee       _ssh_tty_parse_specchar    004191ee f   ssh.obj
 0001:00018220       _ssh_versioncmp            00419220 f   ssh.obj
 0001:00018472       _aes_ssh2_sdctr            00419472 f   sshaes.obj
 0001:00018505       _aes_decrypt_cbc           00419505 f   sshaes.obj
 0001:0001863d       _aes_decrypt_nb_4          0041963d f   sshaes.obj
 0001:000188c7       _aes_decrypt_nb_6          004198c7 f   sshaes.obj
 0001:00018cd5       _aes_decrypt_nb_8          00419cd5 f   sshaes.obj
 0001:0001925e       _aes_encrypt_cbc           0041a25e f   sshaes.obj
 0001:00019351       _aes_encrypt_nb_4          0041a351 f   sshaes.obj
 0001:000195bf       _aes_encrypt_nb_6          0041a5bf f   sshaes.obj
 0001:000199c9       _aes_encrypt_nb_8          0041a9c9 f   sshaes.obj
 0001:00019f4e       _aes_sdctr                 0041af4e f   sshaes.obj
 0001:0001a075       _aes_setup                 0041b075 f   sshaes.obj
 0001:0001a360       _arcfour_block             0041b360 f   ssharcf.obj
 0001:0001a3bb       _arcfour_make_context      0041b3bb f   ssharcf.obj
 0001:0001a3ca       _blowfish_free_context     0041b3ca f   ssharcf.obj
 0001:0001a3ca       _sha1_free_context         0041b3ca f   ssharcf.obj
 0001:0001a3ca       _sha256_free_context       0041b3ca f   ssharcf.obj
 0001:0001a3ca       _arcfour_free_context      0041b3ca f   ssharcf.obj
 0001:0001a3ca       _des3_free_context         0041b3ca f   ssharcf.obj
 0001:0001a3cf       _arcfour128_key            0041b3cf f   ssharcf.obj
 0001:0001a3eb       _arcfour256_key            0041b3eb f   ssharcf.obj
 0001:0001a407       _arcfour_setkey            0041b407 f   ssharcf.obj
 0001:0001a4dd       _arcfour_stir              0041b4dd f   ssharcf.obj
 0001:0001a515       _blowfish_iv               0041b515 f   sshblowf.obj
 0001:0001a569       _blowfish_sesskey          0041b569 f   sshblowf.obj
 0001:0001a59f       _blowfish_ssh1_encrypt_blk 0041b59f f   sshblowf.obj
 0001:0001a5b4       _blowfish_ssh1_decrypt_blk 0041b5b4 f   sshblowf.obj
 0001:0001a5cf       _blowfish_ssh2_encrypt_blk 0041b5cf f   sshblowf.obj
 0001:0001a5e4       _blowfish_ssh2_decrypt_blk 0041b5e4 f   sshblowf.obj
 0001:0001a5f9       _blowfish_ssh2_sdctr       0041b5f9 f   sshblowf.obj
 0001:0001a60e       _blowfish_make_context     0041b60e f   sshblowf.obj
 0001:0001a61d       _blowfish_ssh1_make_context 0041b61d f   sshblowf.obj
 0001:0001a62c       _blowfish_key              0041b62c f   sshblowf.obj
 0001:0001a63f       _blowfish256_key           0041b63f f   sshblowf.obj
 0001:0001a652       _blowfish_decrypt          0041b652 f   sshblowf.obj
 0001:0001aa15       _blowfish_encrypt          0041ba15 f   sshblowf.obj
 0001:0001add8       _blowfish_lsb_decrypt_cbc  0041bdd8 f   sshblowf.obj
 0001:0001aefb       _blowfish_lsb_encrypt_cbc  0041befb f   sshblowf.obj
 0001:0001affe       _blowfish_msb_decrypt_cbc  0041bffe f   sshblowf.obj
 0001:0001b125       _blowfish_msb_encrypt_cbc  0041c125 f   sshblowf.obj
 0001:0001b228       _blowfish_msb_sdctr        0041c228 f   sshblowf.obj
 0001:0001b367       _blowfish_setkey           0041c367 f   sshblowf.obj
 0001:0001b68c       _bigdivmod                 0041c68c f   sshbn.obj
 0001:0001be4c       _internal_add              0041ce4c f   sshbn.obj
 0001:0001beac       _internal_mod              0041ceac f   sshbn.obj
 0001:0001c0e7       _internal_mul              0041d0e7 f   sshbn.obj
 0001:0001c394       _internal_mul_low          0041d394 f   sshbn.obj
 0001:0001c4db       _internal_sub              0041d4db f   sshbn.obj
 0001:0001d19d       _monty_reduce              0041e19d f   sshbn.obj
 0001:0001d259       _mul_compute_scratch       0041e259 f   sshbn.obj
 0001:0001d278       _newbn                     0041e278 f   sshbn.obj
 0001:0001d3c6       _check_crc                 0041e3c6 f   sshcrcda.obj
 0001:0001d460       _crc_update                0041e460 f   sshcrcda.obj
 0001:0001d6f0       _des3_key                  0041e6f0 f   sshdes.obj
 0001:0001d7dd       _des3_iv                   0041e7dd f   sshdes.obj
 0001:0001d831       _des_key                   0041e831 f   sshdes.obj
 0001:0001d881       _des3_sesskey              0041e881 f   sshdes.obj
 0001:0001d8a5       _des3_encrypt_blk          0041e8a5 f   sshdes.obj
 0001:0001d8ba       _des3_decrypt_blk          0041e8ba f   sshdes.obj
 0001:0001d8d5       _des3_ssh2_encrypt_blk     0041e8d5 f   sshdes.obj
 0001:0001d8ea       _des3_ssh2_decrypt_blk     0041e8ea f   sshdes.obj
 0001:0001d8ff       _des3_ssh2_sdctr           0041e8ff f   sshdes.obj
 0001:0001d914       _des_ssh2_decrypt_blk      0041e914 f   sshdes.obj
 0001:0001d929       _des_sesskey               0041e929 f   sshdes.obj
 0001:0001d94d       _des_encrypt_blk           0041e94d f   sshdes.obj
 0001:0001d94d       _des_ssh2_encrypt_blk      0041e94d f   sshdes.obj
 0001:0001d962       _des_decrypt_blk           0041e962 f   sshdes.obj
 0001:0001d97d       _des3_make_context         0041e97d f   sshdes.obj
 0001:0001d98c       _des3_ssh1_make_context    0041e98c f   sshdes.obj
 0001:0001d99b       _des_make_context          0041e99b f   sshdes.obj
 0001:0001d9aa       _des_ssh1_make_context     0041e9aa f   sshdes.obj
 0001:0001d9b9       _bitsel                    0041e9b9 f   sshdes.obj
 0001:0001db11       _des_3cbc_decrypt          0041eb11 f   sshdes.obj
 0001:0001db4e       _des_3cbc_encrypt          0041eb4e f   sshdes.obj
 0001:0001db8b       _des_cbc3_decrypt          0041eb8b f   sshdes.obj
 0001:0001dce4       _des_cbc3_encrypt          0041ece4 f   sshdes.obj
 0001:0001de19       _des_cbc_decrypt           0041ee19 f   sshdes.obj
 0001:0001df40       _des_cbc_encrypt           0041ef40 f   sshdes.obj
 0001:0001e043       _des_decipher              0041f043 f   sshdes.obj
 0001:0001e94f       _des_encipher              0041f94f f   sshdes.obj
 0001:0001f215       _des_key_setup             00420215 f   sshdes.obj
 0001:0001f2e0       _des_keysetup_xdmauth      004202e0 f   sshdes.obj
 0001:0001f3b1       _des_sdctr3                004203b1 f   sshdes.obj
 0001:0001f6a3       _dh_init                   004206a3 f   sshdh.obj
 0001:0001f736       _dss_fingerprint           00420736 f   sshdss.obj
 0001:0001f99d       _dss_verifysig             0042099d f   sshdss.obj
 0001:0001fb66       _dss_public_blob           00420b66 f   sshdss.obj
 0001:0001fd28       _dss_private_blob          00420d28 f   sshdss.obj
 0001:0001fdc2       _dss_createkey             00420dc2 f   sshdss.obj
 0001:0001febd       _dss_openssh_createkey     00420ebd f   sshdss.obj
 0001:0001ff65       _dss_openssh_fmtkey        00420f65 f   sshdss.obj
 0001:000201c8       _dss_pubkey_bits           004211c8 f   sshdss.obj
 0001:000201f0       _dss_sign                  004211f0 f   sshdss.obj
 0001:000203fc       _dss_newkey                004213fc f   sshdss.obj
 0001:0002049d       _dss_freekey               0042149d f   sshdss.obj
 0001:000204cc       _dss_fmtkey                004214cc f   sshdss.obj
 0001:0002070a       _get160                    0042170a f   sshdss.obj
 0001:00020726       _getmp                     00421726 f   sshdss.obj
 0001:0002075e       _getstring                 0042175e f   sshdss.obj
 0001:0002075e       _getstring                 0042175e f   sshdss.obj
 0001:000207b7       _sha512_mpint              004217b7 f   sshdss.obj
 0001:000207b7       _sha512_mpint              004217b7 f   sshdss.obj
 0001:00020831       _sha_mpint                 00421831 f   sshdss.obj
 0001:000208ab       _ssh_gssapi_acquire_cred   004218ab f   sshgssc.obj
 0001:00020914       _ssh_gssapi_display_status 00421914 f   sshgssc.obj
 0001:000209f9       _ssh_gssapi_free_mic       004219f9 f   sshgssc.obj
 0001:000209fe       _ssh_gssapi_free_tok       004219fe f   sshgssc.obj
 0001:00020a18       _ssh_gssapi_get_mic        00421a18 f   sshgssc.obj
 0001:00020a3d       _ssh_gssapi_import_name    00421a3d f   sshgssc.obj
 0001:00020a92       _ssh_gssapi_indicate_mech  00421a92 f   sshgssc.obj
 0001:00020aad       _ssh_gssapi_init_sec_context 00421aad f   sshgssc.obj
 0001:00020b04       _ssh_gssapi_release_cred   00421b04 f   sshgssc.obj
 0001:00020b42       _ssh_gssapi_release_name   00421b42 f   sshgssc.obj
 0001:00020b68       _hmacmd5_key_16            00421b68 f   sshmd5.obj
 0001:00020b7b       _hmacmd5_start             00421b7b f   sshmd5.obj
 0001:00020b8f       _hmacmd5_bytes             00421b8f f   sshmd5.obj
 0001:00020baa       _hmacmd5_genresult         00421baa f   sshmd5.obj
 0001:00020c26       _hmacmd5_verresult         00421c26 f   sshmd5.obj
 0001:00020c68       _hmacmd5_generate          00421c68 f   sshmd5.obj
 0001:00020c87       _hmacmd5_verify            00421c87 f   sshmd5.obj
 0001:00020f10       _MD5_Block                 00421f10 f   sshmd5.obj
 0001:000219ee       _hmacmd5_do_hmac_internal  004229ee f   sshmd5.obj
 0001:00021a38       _hmacmd5_do_hmac_ssh       00422a38 f   sshmd5.obj
 0001:00021e83       _loadrsakey_main           00422e83 f   sshpubk.obj
 0001:00022208       _read_blob                 00423208 f   sshpubk.obj
 0001:000222d6       _read_body                 004232d6 f   sshpubk.obj
 0001:0002237f       _read_header               0042337f f   sshpubk.obj
 0001:000230d5       _random_add_heavynoise_bitbybit 004240d5 f   sshrand.obj
 0001:000232da       _random_stir               004242da f   sshrand.obj
 0001:000233d3       _random_timer              004243d3 f   sshrand.obj
 0001:00023443       _rsa2_newkey               00424443 f   sshrsa.obj
 0001:000234d8       _rsa2_freekey              004244d8 f   sshrsa.obj
 0001:000234e7       _rsa2_fmtkey               004244e7 f   sshrsa.obj
 0001:0002350c       _rsa2_public_blob          0042450c f   sshrsa.obj
 0001:00023626       _rsa2_private_blob         00424626 f   sshrsa.obj
 0001:000237d3       _rsa2_createkey            004247d3 f   sshrsa.obj
 0001:00023847       _rsa2_openssh_createkey    00424847 f   sshrsa.obj
 0001:0002390b       _rsa2_openssh_fmtkey       0042490b f   sshrsa.obj
 0001:00023beb       _rsa2_pubkey_bits          00424beb f   sshrsa.obj
 0001:00023c14       _rsa2_fingerprint          00424c14 f   sshrsa.obj
 0001:00023db0       _rsa2_verifysig            00424db0 f   sshrsa.obj
 0001:00023f1a       _rsa2_sign                 00424f1a f   sshrsa.obj
 0001:00024236       _getmp                     00425236 f   sshrsa.obj
 0001:00024362       _oaep_mask                 00425362 f   sshrsa.obj
 0001:000245cd       _rsa_privkey_op            004255cd f   sshrsa.obj
 0001:00024ccb       _sha256_init               00425ccb f   sshsh256.obj
 0001:00024ce4       _sha256_bytes              00425ce4 f   sshsh256.obj
 0001:00024ce9       _sha256_final              00425ce9 f   sshsh256.obj
 0001:00024d03       _sha256_make_context       00425d03 f   sshsh256.obj
 0001:00024d0f       _sha256_key                00425d0f f   sshsh256.obj
 0001:00024d22       _hmacsha256_start          00425d22 f   sshsh256.obj
 0001:00024d36       _hmacsha256_bytes          00425d36 f   sshsh256.obj
 0001:00024d51       _hmacsha256_genresult      00425d51 f   sshsh256.obj
 0001:00024ddc       _sha256_generate           00425ddc f   sshsh256.obj
 0001:00024dfb       _hmacsha256_verresult      00425dfb f   sshsh256.obj
 0001:00024e3d       _sha256_verify             00425e3d f   sshsh256.obj
 0001:000254fe       _sha256_do_hmac            004264fe f   sshsh256.obj
 0001:0002555b       _sha256_key_internal       0042655b f   sshsh256.obj
 0001:00025632       _SHA512_Block              00426632 f   sshsh512.obj
 0001:0002687d       _sha1_init                 0042787d f   sshsha.obj
 0001:00026896       _sha1_bytes                00427896 f   sshsha.obj
 0001:0002689b       _sha1_final                0042789b f   sshsha.obj
 0001:000268b5       _sha1_make_context         004278b5 f   sshsha.obj
 0001:000268c1       _sha1_key                  004278c1 f   sshsha.obj
 0001:000268d4       _sha1_key_buggy            004278d4 f   sshsha.obj
 0001:000268e7       _hmacsha1_start            004278e7 f   sshsha.obj
 0001:000268fb       _hmacsha1_bytes            004278fb f   sshsha.obj
 0001:00026916       _hmacsha1_genresult        00427916 f   sshsha.obj
 0001:00026995       _sha1_generate             00427995 f   sshsha.obj
 0001:000269b4       _hmacsha1_verresult        004279b4 f   sshsha.obj
 0001:000269f6       _sha1_verify               004279f6 f   sshsha.obj
 0001:00026a45       _hmacsha1_96_genresult     00427a45 f   sshsha.obj
 0001:00026a82       _sha1_96_generate          00427a82 f   sshsha.obj
 0001:00026acc       _hmacsha1_96_verresult     00427acc f   sshsha.obj
 0001:00026b0e       _sha1_96_verify            00427b0e f   sshsha.obj
 0001:00026fd0       _sha1_do_hmac              00427fd0 f   sshsha.obj
 0001:0002702d       _sha1_key_internal         0042802d f   sshsha.obj
 0001:00027104       _zlib_disable_compression  00428104 f   sshzlib.obj
 0001:00027a21       $LN117                     00428a21     sshzlib.obj
 0001:00027a55       _lz77_advance              00428a55 f   sshzlib.obj
 0001:00027b1a       _lz77_compress             00428b1a f   sshzlib.obj
 0001:00027f06       _lz77_hash                 00428f06 f   sshzlib.obj
 0001:00027f36       _outbits                   00428f36 f   sshzlib.obj
 0001:00027fb4       _zlib_emit_char            00428fb4 f   sshzlib.obj
 0001:00028025       _zlib_freetable            00429025 f   sshzlib.obj
 0001:00028079       _zlib_huflookup            00429079 f   sshzlib.obj
 0001:000280e4       _zlib_literal              004290e4 f   sshzlib.obj
 0001:0002812b       _zlib_match                0042912b f   sshzlib.obj
 0001:000282c9       _zlib_mkonetab             004292c9 f   sshzlib.obj
 0001:0002840b       _zlib_mktable              0042940b f   sshzlib.obj
 0001:000284f7       _compare_timer_contexts    004294f7 f   timing.obj
 0001:0002850a       _compare_timers            0042950a f   timing.obj
 0001:00028564       _init_timers               00429564 f   timing.obj
 0001:000286e7       _add234_internal           004296e7 f   tree234.obj
 0001:00028bfe       _countnode234              00429bfe f   tree234.obj
 0001:00028c87       _delpos234_internal        00429c87 f   tree234.obj
 0001:0002926b       _freenode234               0042a26b f   tree234.obj
 0001:0002943a       _wc_match_fragment         0042a43a f   wildcard.obj
 0001:0002978b       _console_data_untrusted    0042a78b f   wincons.obj
 0001:00029a5b       _arcfour_iv                0042aa5b f   wincons.obj
 0001:00029a5b       _x11_log                   0042aa5b f   wincons.obj
 0001:00029a5b       _ssh_comp_none_cleanup     0042aa5b f   wincons.obj
 0001:00029a5b       _sk_localproxy_set_frozen  0042aa5b f   wincons.obj
 0001:00029a5b       _sk_localproxy_flush       0042aa5b f   wincons.obj
 0001:00029a5b       _sk_tcp_flush              0042aa5b f   wincons.obj
 0001:00029a5b       _dummy_plug_log            0042aa5b f   wincons.obj
 0001:00029a5b       _ssh_msg_ignore            0042aa5b f   wincons.obj
 0001:00029a5b       _dummy_plug_sent           0042aa5b f   wincons.obj
 0001:00029a5b       _pfd_log                   0042aa5b f   wincons.obj
 0001:00029f39       _ssh_sspi_acquire_cred     0042af39 f   wingss.obj
 0001:00029f8c       _ssh_sspi_bind_fns         0042af8c f   wingss.obj
 0001:00029fd7       _ssh_sspi_display_status   0042afd7 f   wingss.obj
 0001:0002a08b       _ssh_sspi_free_mic         0042b08b f   wingss.obj
 0001:0002a09b       _ssh_sspi_free_tok         0042b09b f   wingss.obj
 0001:0002a0bd       _ssh_sspi_get_mic          0042b0bd f   wingss.obj
 0001:0002a190       _ssh_sspi_import_name      0042b190 f   wingss.obj
 0001:0002a1b7       _ssh_sspi_indicate_mech    0042b1b7 f   wingss.obj
 0001:0002a1cd       _ssh_sspi_init_sec_context 0042b1cd f   wingss.obj
 0001:0002a29b       _ssh_sspi_release_cred     0042b29b f   wingss.obj
 0001:0002a2cf       _ssh_sspi_release_name     0042b2cf f   wingss.obj
 0001:0002a2ed       _ssh_channelcmp            0042b2ed f   winhandl.obj
 0001:0002a2ed       _handle_cmp_evtomain       0042b2ed f   winhandl.obj
 0001:0002a308       _handle_destroy            0042b308 f   winhandl.obj
 0001:0002a345       _ssh_channelfind           0042b345 f   winhandl.obj
 0001:0002a345       _handle_find_evtomain      0042b345 f   winhandl.obj
 0001:0002a5b9       _handle_input_threadfunc@4 0042b5b9 f   winhandl.obj
 0001:0002a7ba       _handle_output_threadfunc@4 0042b7ba f   winhandl.obj
 0001:0002a8be       _handle_throttle           0042b8be f   winhandl.obj
 0001:0002a8eb       _handle_try_output         0042b8eb f   winhandl.obj
 0001:0002ac23       _sk_tcp_close              0042bc23 f   winnet.obj
 0001:0002ac71       _sk_tcp_write              0042bc71 f   winnet.obj
 0001:0002acbf       _sk_tcp_write_oob          0042bcbf f   winnet.obj
 0001:0002ad32       _sk_tcp_write_eof          0042bd32 f   winnet.obj
 0001:0002ad6a       _sk_tcp_set_private_ptr    0042bd6a f   winnet.obj
 0001:0002ad76       _sk_tcp_get_private_ptr    0042bd76 f   winnet.obj
 0001:0002ad7e       _sk_tcp_set_frozen         0042bd7e f   winnet.obj
 0001:0002adfb       _cmpforsearch              0042bdfb f   winnet.obj
 0001:0002ae11       _cmpfortree                0042be11 f   winnet.obj
 0001:0002ae34       _errstring_compare         0042be34 f   winnet.obj
 0001:0002ae39       _errstring_find            0042be39 f   winnet.obj
 0001:0002ae7a       _ipv4_is_local_addr        0042be7a f   winnet.obj
 0001:0002b31e       _sk_tcp_socket_error       0042c31e f   winnet.obj
 0001:0002c231       _try_connect               0042d231 f   winnet.obj
 0001:0002c927       $LN47                      0042d927     winnet.obj
 0001:0002c9b7       $LN45                      0042d9b7     winnet.obj
 0001:0002d013       _sk_localproxy_plug        0042e013 f   winproxy.obj
 0001:0002d026       _sk_localproxy_close       0042e026 f   winproxy.obj
 0001:0002d058       _sk_localproxy_write       0042e058 f   winproxy.obj
 0001:0002d070       _sk_localproxy_write_oob   0042e070 f   winproxy.obj
 0001:0002d075       _sk_localproxy_write_eof   0042e075 f   winproxy.obj
 0001:0002d083       _sk_localproxy_set_private_ptr 0042e083 f   winproxy.obj
 0001:0002d08f       _sk_localproxy_get_private_ptr 0042e08f f   winproxy.obj
 0001:0002d097       _sk_localproxy_socket_error 0042e097 f   winproxy.obj
 0001:0002dbc4       _access_random_seed        0042ebc4 f   winstore.obj
 0001:0002dde2       _hostkey_regname           0042ede2 f   winstore.obj
 0001:0002de2a       _mungestr                  0042ee2a f   winstore.obj
 0001:0002e1c0       _try_random_seed           0042f1c0 f   winstore.obj
 0001:0002e502       _dummy_plug_receive        0042f502 f   x11fwd.obj
 0001:0002e502       _dummy_plug_accepting      0042f502 f   x11fwd.obj
 0001:0002e502       _dummy_plug_closing        0042f502 f   x11fwd.obj
 0001:0002e506       _x11_closing               0042f506 f   x11fwd.obj
 0001:0002e52e       _x11_receive               0042f52e f   x11fwd.obj
 0001:0002e562       _x11_sent                  0042f562 f   x11fwd.obj
 0001:0002eeb4       _x11_verify                0042feb4 f   x11fwd.obj
 0001:0002f0b3       _xdmseen_cmp               004300b3 f   x11fwd.obj
 0001:0002f3b0       $$000000                   004303b0     LIBCMT:strcmp.obj
 0001:0002f440       $$000000                   00430440     LIBCMT:strlen.obj
 0001:0002f4d0       $$000000                   004304d0     LIBCMT:strchr.obj
 0001:0002f600       $$000000                   00430600     LIBCMT:strncmp.obj
 0001:0002fcfe       _swprintf                  00430cfe f   LIBCMT:wassert.obj
 0001:0002fd20       $$000000                   00430d20     LIBCMT:memchr.obj
 0001:0002fdd0       $$000000                   00430dd0     LIBCMT:memcpy.obj
 0001:00030020       LeadUpVec                  00431020     LIBCMT:memcpy.obj
 0001:0003009c       UnwindUpVec                0043109c     LIBCMT:memcpy.obj
 0001:00030108       TrailUpVec                 00431108     LIBCMT:memcpy.obj
 0001:000301ac       LeadDownVec                004311ac     LIBCMT:memcpy.obj
 0001:00030238       UnwindDownVec              00431238     LIBCMT:memcpy.obj
 0001:000302a4       TrailDownVec               004312a4     LIBCMT:memcpy.obj
 0001:00030718       _flsall                    00431718 f   LIBCMT:fflush.obj
 0001:00031120       $$000000                   00432120     LIBCMT:strcat.obj
 0001:0003141c       ?strtoxl@@YAKPAUlocaleinfo_struct@@PBDPAPBDHH@Z 0043241c f   LIBCMT:strtol.obj
 0001:00031810       $$000000                   00432810     LIBCMT:memset.obj
 0001:000318a0       $$000000                   004328a0     LIBCMT:memmove.obj
 0001:00031af0       LeadUpVec                  00432af0     LIBCMT:memmove.obj
 0001:00031b6c       UnwindUpVec                00432b6c     LIBCMT:memmove.obj
 0001:00031bd8       TrailUpVec                 00432bd8     LIBCMT:memmove.obj
 0001:00031c7c       LeadDownVec                00432c7c     LIBCMT:memmove.obj
 0001:00031d08       UnwindDownVec              00432d08     LIBCMT:memmove.obj
 0001:00031d74       TrailDownVec               00432d74     LIBCMT:memmove.obj
 0001:00031f02       _vscan_fn                  00432f02 f   LIBCMT:sscanf.obj
 0001:00032392       __initterm                 00433392 f   LIBCMT:crt0dat.obj
 0001:000323e2       _doexit                    004333e2 f   LIBCMT:crt0dat.obj
 0001:000327c0       _shortsort                 004337c0 f   LIBCMT:qsort.obj
 0001:00032830       _swap                      00433830 f   LIBCMT:qsort.obj
 0001:00032b50       $$000000                   00433b50     LIBCMT:strcspn.obj
 0001:00032ba0       $$000000                   00433ba0     LIBCMT:strrchr.obj
 0001:00032ce0       $$000000                   00433ce0     LIBCMT:strspn.obj
 0001:00032dc0       $$000000                   00433dc0     LIBCMT:chkstk.obj
 0001:00032df0       $$000000                   00433df0     LIBCMT:ftol2.obj
 0001:00034593       $LN1280                    00435593     LIBCMT:memcmp.obj
 0001:00034620       $$000000                   00435620     LIBCMT:strncpy.obj
 0001:00034790       $$000000                   00435790     LIBCMT:llmul.obj
 0001:000347d0       $$000000                   004357d0     LIBCMT:llshl.obj
 0001:000347f0       $$000000                   004357f0     LIBCMT:ulldvrm.obj
 0001:00034890       $$000000                   00435890     LIBCMT:ullrem.obj
 0001:00034ee0       $$000000                   00435ee0     LIBCMT:ulldiv.obj
 0001:00034f88       ___tmainCRTStartup         00435f88 f   LIBCMT:crt0.obj
 0001:000350dc       _fast_error_exit           004360dc f   LIBCMT:crt0.obj
 0001:000354f0       $$000000                   004364f0     LIBCMT:sehprolg4.obj
 0001:00035e50       $$000000                   00436e50     LIBCMT:exsup4.obj
 0001:00035ee0       __unwind_handler4          00436ee0 f   LIBCMT:exsup4.obj
 0001:0003637f       _xtow_s@20                 0043737f f   LIBCMT:xtows.obj
 0001:00036908       _siglookup                 00437908 f   LIBCMT:winsig.obj
 0001:0003715d       __cftoe2_l                 0043815d f   LIBCMT:cvt.obj
 0001:00037378       __cftof2_l                 00438378 f   LIBCMT:cvt.obj
 0001:000377a2       __shift                    004387a2 f   LIBCMT:cvt.obj
 0001:00039186       $LN272                     0043a186     LIBCMT:output.obj
 0001:000391a6       _write_char                0043a1a6 f   LIBCMT:output.obj
 0001:000391ec       _write_multi_char          0043a1ec f   LIBCMT:output.obj
 0001:00039218       _write_string              0043a218 f   LIBCMT:output.obj
 0001:00039747       ?CPtoLocaleName@@YAPB_WH@Z 0043a747 f   LIBCMT:mbctype.obj
 0001:00039781       ?getSystemCP@@YAHH@Z       0043a781 f   LIBCMT:mbctype.obj
 0001:000397ed       ?setSBCS@@YAXPAUthreadmbcinfostruct@@@Z 0043a7ed f   LIBCMT:mbctype.obj
 0001:00039856       ?setSBUpLow@@YAXPAUthreadmbcinfostruct@@@Z 0043a856 f   LIBCMT:mbctype.obj
 0001:0003a278       ?__crtLCMapStringA_stat@@YAHPAUlocaleinfo_struct@@PB_WKPBDHPADHHH@Z 0043b278 f   LIBCMT:a_map.obj
 0001:0003a518       ?_W_expandtime@@YAHPAUlocaleinfo_struct@@_WPBUtm@@PAPA_WPAIPAU__lc_time_data@@I@Z 0043b518 f   LIBCMT:wcsftime.obj
 0001:0003aa25       ?_W_store_num@@YAXHHPAPA_WPAII@Z 0043ba25 f   LIBCMT:wcsftime.obj
 0001:0003aa94       ?_W_store_number@@YAXHPAPA_WPAI@Z 0043ba94 f   LIBCMT:wcsftime.obj
 0001:0003aaea       ?_W_store_str@@YAXPA_WPAPA_WPAI@Z 0043baea f   LIBCMT:wcsftime.obj
 0001:0003ab18       ?_W_store_winword@@YAHPAUlocaleinfo_struct@@HPBUtm@@PAPA_WPAIPAU__lc_time_data@@@Z 0043bb18 f   LIBCMT:wcsftime.obj
 0001:0003b164       ___check_float_string      0043c164 f   LIBCMT:input.obj
 0001:0003b1c3       __hextodec                 0043c1c3 f   LIBCMT:input.obj
 0001:0003b1e4       __inc                      0043c1e4 f   LIBCMT:input.obj
 0001:0003c2f4       __whiteout                 0043d2f4 f   LIBCMT:input.obj
 0001:0003c850       __onexit_nolock            0043d850 f   LIBCMT:onexit.obj
 0001:0003d654       _parse_cmdline             0043e654 f   LIBCMT:stdargv.obj
 0001:0003e1d0       $$000000                   0043f1d0     LIBCMT:exsup.obj
 0001:0003e1f0       __unwind_handler           0043f1f0 f   LIBCMT:exsup.obj
 0001:0003ef03       $LN262                     0043ff03     LIBCMT:woutput.obj
 0001:0003ef23       _write_char                0043ff23 f   LIBCMT:woutput.obj
 0001:0003ef59       _write_multi_char          0043ff59 f   LIBCMT:woutput.obj
 0001:0003ef85       _write_string              0043ff85 f   LIBCMT:woutput.obj
 0001:0003f3e0       $$000000                   004403e0     LIBCMT:lldvrm.obj
 0001:0003f4c0       $$000000                   004404c0     LIBCMT:ullshr.obj
 0001:0003ff55       ?__crtGetStringTypeA_stat@@YAHPAUlocaleinfo_struct@@KPBDHPAGHH@Z 00440f55 f   LIBCMT:a_str.obj
 0001:00040320       $$000000                   00441320     LIBCMT:alloca16.obj
 0001:00040508       __tzset_nolock             00441508 f   LIBCMT:tzset.obj
 0001:00040e28       _copy_environ              00441e28 f   LIBCMT:setenv.obj
 0001:00040e88       _findenv                   00441e88 f   LIBCMT:setenv.obj
 0001:00040fa6       ?__crtCompareStringA_stat@@YAHPAUlocaleinfo_struct@@PB_WKPBDH2HH@Z 00441fa6 f   LIBCMT:a_cmp.obj
 0001:00041211       ?strncnt@@YAHPBDH@Z        00442211 f   LIBCMT:a_cmp.obj
 0001:00041272       ?x_ismbbtype_l@@YAHPAUlocaleinfo_struct@@IHH@Z 00442272 f   LIBCMT:ismbbyte.obj
 0001:000412de       ___createFile              004422de f   LIBCMT:wopen.obj
 0001:00042f8b       $LN304                     00443f8b     LIBCMT:strgtold.obj
 0001:0004397f       ___hw_cw_sse2              0044497f f   LIBCMT:ieee87.obj
 0001:00043d28       __hw_cw                    00444d28 f   LIBCMT:ieee87.obj
 0001:00044260       $$000000                   00445260     LIBCMT:_strnicm.obj
 0002:00000214       _pinit                     00446214     LIBCMT:_file.obj
 0002:00000218       _pinit                     00446218     LIBCMT:cpu_disp.obj
 0002:0000021c       _pinit                     0044621c     LIBCMT:mbctype.obj
 0002:00000220       _pinit                     00446220     LIBCMT:onexit.obj
 0002:00000224       _pinit                     00446224     LIBCMT:crt0.obj
 0002:00000230       _pterm                     00446230     LIBCMT:wsetloca.obj
 0002:00000234       _pterm                     00446234     LIBCMT:initcon.obj
 0002:00000238       _pterm                     00446238     LIBCMT:_file.obj
 0002:00000b08       ?base64_chars@?1??base64_encode_atom@@9@9 00446b08     misc.obj
 0002:00000bdc       _oids                      00446bdc     pgssapi.obj
 0002:00000c68       ?fn_table@?1??pfd_newconnect@@9@9 00446c68     portfwd.obj
 0002:00000c7c       ?fn_table@?1??pfd_accepting@@9@9 00446c7c     portfwd.obj
 0002:00000c90       ?fn_table@?1??pfd_addforward@@9@9 00446c90     portfwd.obj
 0002:00000cbc       ?socket_fn_table@?1??new_connection@@9@9 00446cbc     proxy.obj
 0002:00000ce4       ?plug_fn_table@?1??new_connection@@9@9 00446ce4     proxy.obj
 0002:00002278       ?defaults@?L@??load_open_settings@@9@9 00448278     settings.obj
 0002:000022d0       ?defaults@?N@??load_open_settings@@9@9 004482d0     settings.obj
 0002:000022f0       _ciphernames               004482f0     settings.obj
 0002:00002350       _kexnames                  00448350     settings.obj
 0002:0000332c       ?messages@?1??fxp_got_status@@9@9 0044932c     sftp.obj
 0002:000036b8       ?fn_table@?1??connect_to_host@@9@9 004496b8     ssh.obj
 0002:000036cc       _ssh_comp_none             004496cc     ssh.obj
 0002:000036f4       ?reasons@?1??ssh2_msg_channel_open_failure@@9@9 004496f4     ssh.obj
 0002:00003708       ?ssh1_ignore_special@?1??ssh_get_specials@@9@9 00449708     ssh.obj
 0002:00003710       ?ssh2_ignore_special@?1??ssh_get_specials@@9@9 00449710     ssh.obj
 0002:00003718       ?ssh2_rekey_special@?1??ssh_get_specials@@9@9 00449718     ssh.obj
 0002:00003720       ?ssh2_session_specials@?1??ssh_get_specials@@9@9 00449720     ssh.obj
 0002:000037a8       ?specials_end@?1??ssh_get_specials@@9@9 004497a8     ssh.obj
 0002:000037b0       _ssh2_disconnect_reasons   004497b0     ssh.obj
 0002:000037f0       _ssh_ttymodes              004497f0     ssh.obj
 0002:00007f10       ?C1@?1??aes_decrypt_nb_6@@9@9 0044df10     sshaes.obj
 0002:00007f14       ?C2@?1??aes_decrypt_nb_6@@9@9 0044df14     sshaes.obj
 0002:00007f18       ?C3@?1??aes_decrypt_nb_6@@9@9 0044df18     sshaes.obj
 0002:00007f1c       ?Nb@?1??aes_decrypt_nb_6@@9@9 0044df1c     sshaes.obj
 0002:00007f20       ?C1@?1??aes_decrypt_nb_8@@9@9 0044df20     sshaes.obj
 0002:00007f24       ?C2@?1??aes_decrypt_nb_8@@9@9 0044df24     sshaes.obj
 0002:00007f28       ?C3@?1??aes_decrypt_nb_8@@9@9 0044df28     sshaes.obj
 0002:00007f2c       ?Nb@?1??aes_decrypt_nb_8@@9@9 0044df2c     sshaes.obj
 0002:00007f38       _ssh_aes128_ctr            0044df38     sshaes.obj
 0002:00007f64       _ssh_aes192_ctr            0044df64     sshaes.obj
 0002:00007f90       _ssh_aes256_ctr            0044df90     sshaes.obj
 0002:00007fbc       _ssh_aes128                0044dfbc     sshaes.obj
 0002:00007fe8       _ssh_aes192                0044dfe8     sshaes.obj
 0002:00008014       _ssh_aes256                0044e014     sshaes.obj
 0002:00008040       _ssh_rijndael_lysator      0044e040     sshaes.obj
 0002:0000806c       _aes_list                  0044e06c     sshaes.obj
 0002:00008088       _Sbox                      0044e088     sshaes.obj
 0002:00008188       _Sboxinv                   0044e188     sshaes.obj
 0002:00008288       _E0                        0044e288     sshaes.obj
 0002:00008688       _E1                        0044e688     sshaes.obj
 0002:00008a88       _E2                        0044ea88     sshaes.obj
 0002:00008e88       _E3                        0044ee88     sshaes.obj
 0002:00009288       _D0                        0044f288     sshaes.obj
 0002:00009688       _D1                        0044f688     sshaes.obj
 0002:00009a88       _D2                        0044fa88     sshaes.obj
 0002:00009e88       _D3                        0044fe88     sshaes.obj
 0002:0000a288       ?C1@?1??aes_encrypt_nb_4@@9@9 00450288     sshaes.obj
 0002:0000a28c       ?C2@?1??aes_encrypt_nb_4@@9@9 0045028c     sshaes.obj
 0002:0000a290       ?C3@?1??aes_encrypt_nb_4@@9@9 00450290     sshaes.obj
 0002:0000a294       ?Nb@?1??aes_encrypt_nb_4@@9@9 00450294     sshaes.obj
 0002:0000a298       ?C1@?1??aes_encrypt_nb_6@@9@9 00450298     sshaes.obj
 0002:0000a29c       ?C2@?1??aes_encrypt_nb_6@@9@9 0045029c     sshaes.obj
 0002:0000a2a0       ?C3@?1??aes_encrypt_nb_6@@9@9 004502a0     sshaes.obj
 0002:0000a2a4       ?Nb@?1??aes_encrypt_nb_6@@9@9 004502a4     sshaes.obj
 0002:0000a2a8       ?C1@?1??aes_encrypt_nb_8@@9@9 004502a8     sshaes.obj
 0002:0000a2ac       ?C2@?1??aes_encrypt_nb_8@@9@9 004502ac     sshaes.obj
 0002:0000a2b0       ?C3@?1??aes_encrypt_nb_8@@9@9 004502b0     sshaes.obj
 0002:0000a2b4       ?Nb@?1??aes_encrypt_nb_8@@9@9 004502b4     sshaes.obj
 0002:0000a2b8       ?C1@?1??aes_decrypt_nb_4@@9@9 004502b8     sshaes.obj
 0002:0000a2bc       ?C2@?1??aes_decrypt_nb_4@@9@9 004502bc     sshaes.obj
 0002:0000a2c0       ?C3@?1??aes_decrypt_nb_4@@9@9 004502c0     sshaes.obj
 0002:0000a2c4       ?Nb@?1??aes_decrypt_nb_4@@9@9 004502c4     sshaes.obj
 0002:0000a4dc       _arcfour_list              004504dc     ssharcf.obj
 0002:0000a574       _ssh_blowfish_ssh2         00450574     sshblowf.obj
 0002:0000a5a0       _ssh_blowfish_ssh2_ctr     004505a0     sshblowf.obj
 0002:0000a5cc       _blowfish_list             004505cc     sshblowf.obj
 0002:0000a5d8       _parray                    004505d8     sshblowf.obj
 0002:0000a620       _sbox0                     00450620     sshblowf.obj
 0002:0000aa20       _sbox1                     00450a20     sshblowf.obj
 0002:0000ae20       _sbox2                     00450e20     sshblowf.obj
 0002:0000b220       _sbox3                     00451220     sshblowf.obj
 0002:0000b6f0       _crc32_table               004516f0     sshcrc.obj
 0002:0000bbe8       _ssh_3des_ssh2             00451be8     sshdes.obj
 0002:0000bc14       _ssh_3des_ssh2_ctr         00451c14     sshdes.obj
 0002:0000bc40       _ssh_des_ssh2              00451c40     sshdes.obj
 0002:0000bc6c       _ssh_des_sshcom_ssh2       00451c6c     sshdes.obj
 0002:0000bc98       _des3_list                 00451c98     sshdes.obj
 0002:0000bca0       _des_list                  00451ca0     sshdes.obj
 0002:0000bca8       ?PC1_Cbits@?1??des_key_setup@@9@9 00451ca8     sshdes.obj
 0002:0000bd18       ?PC1_Dbits@?1??des_key_setup@@9@9 00451d18     sshdes.obj
 0002:0000bd88       ?PC2_0246@?1??des_key_setup@@9@9 00451d88     sshdes.obj
 0002:0000be08       ?PC2_1357@?1??des_key_setup@@9@9 00451e08     sshdes.obj
 0002:0000be88       ?leftshifts@?1??des_key_setup@@9@9 00451e88     sshdes.obj
 0002:0000bec8       _SPboxes                   00451ec8     sshdes.obj
 0002:0000c778       _P1                        00452778     sshdh.obj
 0002:0000c7f8       _P14                       004527f8     sshdh.obj
 0002:0000c8f8       _G                         004528f8     sshdh.obj
 0002:0000c8fc       _ssh_diffiehellman_group1_sha1 004528fc     sshdh.obj
 0002:0000c91c       _group1_list               0045291c     sshdh.obj
 0002:0000c920       _ssh_diffiehellman_group14_sha1 00452920     sshdh.obj
 0002:0000c940       _group14_list              00452940     sshdh.obj
 0002:0000c944       _ssh_diffiehellman_gex_sha256 00452944     sshdh.obj
 0002:0000c964       _ssh_diffiehellman_gex_sha1 00452964     sshdh.obj
 0002:0000c984       _gex_list                  00452984     sshdh.obj
 0002:0000ca58       ?hex@?1??dss_fmtkey@@9@9   00452a58     sshdss.obj
 0002:0000ce24       ?hex@?1??rsastr_fmt@@9@9   00452e24     sshrsa.obj
 0002:0000ce78       _asn1_weird_stuff          00452e78     sshrsa.obj
 0002:0000ce88       _ssh_rsa_kex_sha1          00452e88     sshrsa.obj
 0002:0000cea8       _ssh_rsa_kex_sha256        00452ea8     sshrsa.obj
 0002:0000cec8       _rsa_kex_list              00452ec8     sshrsa.obj
 0002:0000d078       ?k@?1??SHA256_Block@@9@9   00453078     sshsh256.obj
 0002:0000d1a0       ?iv@?1??SHA512_Core_Init@@9@9 004531a0     sshsh512.obj
 0002:0000d1e0       ?k@?1??SHA512_Block@@9@9   004531e0     sshsh512.obj
 0002:0000d5b0       _mirrorbytes               004535b0     sshzlib.obj
 0002:0000d6b0       _lencodes                  004536b0     sshzlib.obj
 0002:0000d80c       ?lenlenmap@?1??zlib_decompress_block@@9@9 0045380c     sshzlib.obj
 0002:0000d820       _distcodes                 00453820     sshzlib.obj
 0002:0000db30       ?absentmsg_batch@?1??verify_ssh_host_key@@9@9 00453b30     wincons.obj
 0002:0000dbf0       ?absentmsg@?1??verify_ssh_host_key@@9@9 00453bf0     wincons.obj
 0002:0000ddb0       ?wrongmsg_batch@?1??verify_ssh_host_key@@9@9 00453db0     wincons.obj
 0002:0000def8       ?wrongmsg@?1??verify_ssh_host_key@@9@9 00453ef8     wincons.obj
 0002:0000e1a0       ?abandoned@?1??verify_ssh_host_key@@9@9 004541a0     wincons.obj
 0002:0000e1b8       ?msg@?1??askalg@@9@9       004541b8     wincons.obj
 0002:0000e238       ?msg_batch@?1??askalg@@9@9 00454238     wincons.obj
 0002:0000e2ac       ?abandoned@?1??askalg@@9@9 004542ac     wincons.obj
 0002:0000e2c8       ?msgtemplate@?1??askappend@@9@9 004542c8     wincons.obj
 0002:0000e408       ?msgtemplate_batch@?1??askappend@@9@9 00454408     wincons.obj
 0002:0000e458       ?message@?1??old_keyfile_warning@@9@9 00454458     wincons.obj
 0002:0000eec0       ?fn_table@?1??sk_register@@9@9 00454ec0     winnet.obj
 0002:0000eee8       ?fn_table@?1??sk_new@@9@9  00454ee8     winnet.obj
 0002:0000ef10       ?fn_table@?1??sk_newlistener@@9@9 00454f10     winnet.obj
 0002:0000fa90       ?socket_fn_table@?1??platform_new_connection@@9@9 00455a90     winproxy.obj
 0002:0000fb2c       ?eventtypes@?8??do_eventsel_loop@@9@9 00455b2c     winsftp.obj
 0002:0000fbc4       _reg_jumplist_key          00455bc4     winstore.obj
 0002:0000fbc8       _reg_jumplist_value        00455bc8     winstore.obj
 0002:0000fbcc       _puttystr                  00455bcc     winstore.obj
 0002:0000fbd0       _hex                       00455bd0     winstore.obj
 0002:0000fcf0       ?zeroes@?5??x11_send@@9@9  00455cf0     x11fwd.obj
 0002:0000fd00       _dummy_plug                00455d00     x11fwd.obj
 0002:0000fd14       ?fn_table@?1??x11_init@@9@9 00455d14     x11fwd.obj
 0002:00010230       _GS_ExceptionPointers      00456230     LIBCMT:gs_report.obj
 0002:00010260       ?ccsField@?P@??_openfile@@9@9 00456260     LIBCMT:_open.obj
 0002:00010264       ?utf8encoding@?P@??_openfile@@9@9 00456264     LIBCMT:_open.obj
 0002:0001026c       ?utf16encoding@?P@??_openfile@@9@9 0045626c     LIBCMT:_open.obj
 0002:00010278       ?unicodeencoding@?P@??_openfile@@9@9 00456278     LIBCMT:_open.obj
 0002:00010b88       _rterrs                    00456b88     LIBCMT:crt0msg.obj
 0002:00010d44       __mb_locale_names          00456d44     LIBCMT:mbctype.obj
 0002:000110e0       __first_127char            004570e0     LIBCMT:wsetloca.obj
 0002:00013e70       __sehtable$_fclose         00459e70     LIBCMT:fclose.obj
 0002:00013e90       __sehtable$_fgetc          00459e90     LIBCMT:fgetc.obj
 0002:00013eb0       __sehtable$__fsopen        00459eb0     LIBCMT:fopen.obj
 0002:00013ed0       __sehtable$_fflush         00459ed0     LIBCMT:fflush.obj
 0002:00013ef0       __sehtable$_flsall         00459ef0     LIBCMT:fflush.obj
 0002:00013f18       __sehtable$_fprintf        00459f18     LIBCMT:fprintf.obj
 0002:00013f38       __sehtable$_fwrite         00459f38     LIBCMT:fwrite.obj
 0002:00013f58       __sehtable$_fgets          00459f58     LIBCMT:fgets.obj
 0002:00013f78       __sehtable$_doexit         00459f78     LIBCMT:crt0dat.obj
 0002:00013f98       __sehtable$_fputc          00459f98     LIBCMT:fputc.obj
 0002:00013fb8       __sehtable$_printf         00459fb8     LIBCMT:printf.obj
 0002:00013fd8       __sehtable$_vfprintf_helper 00459fd8     LIBCMT:vfprintf.obj
 0002:00013ff8       __sehtable$_fread_s        00459ff8     LIBCMT:fread.obj
 0002:00014018       __sehtable$_ungetc         0045a018     LIBCMT:ungetc.obj
 0002:00014038       __sehtable$_fputs          0045a038     LIBCMT:fputs.obj
 0002:00014058       __sehtable$_getenv         0045a058     LIBCMT:getenv.obj
 0002:00014078       __sehtable$___tmainCRTStartup 0045a078     LIBCMT:crt0.obj
 0002:00014098       __sehtable$__close         0045a098     LIBCMT:close.obj
 0002:000140b8       __sehtable$__ioinit        0045a0b8     LIBCMT:ioinit.obj
 0002:000140d8       __sehtable$__getstream     0045a0d8     LIBCMT:stream.obj
 0002:000140f8       __sehtable$_setvbuf        0045a0f8     LIBCMT:setvbuf.obj
 0002:00014118       __sehtable$_fwprintf       0045a118     LIBCMT:fwprintf.obj
 0002:00014138       __sehtable$_raise          0045a138     LIBCMT:winsig.obj
 0002:00014158       __sehtable$__fcloseall     0045a158     LIBCMT:closeall.obj
 0002:00014178       __sehtable$__mtinitlocknum 0045a178     LIBCMT:mlock.obj
 0002:00014198       __sehtable$__commit        0045a198     LIBCMT:commit.obj
 0002:000141b8       __sehtable$__write         0045a1b8     LIBCMT:write.obj
 0002:000141d8       __sehtable$___updatetlocinfo 0045a1d8     LIBCMT:localref.obj
 0002:000141f8       __sehtable$___updatetmbcinfo 0045a1f8     LIBCMT:mbctype.obj
 0002:00014218       __sehtable$__setmbcp       0045a218     LIBCMT:mbctype.obj
 0002:00014238       __sehtable$__freefls@4     0045a238     LIBCMT:tidtable.obj
 0002:00014260       __sehtable$__initptd       0045a260     LIBCMT:tidtable.obj
 0002:00014288       __sehtable$__locterm       0045a288     LIBCMT:wsetloca.obj
 0002:000142a8       __sehtable$__IsNonwritableInCurrentImage 0045a2a8     LIBCMT:pesect.obj
 0002:000142c8       __sehtable$__onexit        0045a2c8     LIBCMT:onexit.obj
 0002:000142e8       __sehtable$?terminate@@YAXXZ 0045a2e8     LIBCMT:hooks.obj
 0002:00014308       __sehtable$__read          0045a308     LIBCMT:read.obj
 0002:00014328       __sehtable$__alloc_osfhnd  0045a328     LIBCMT:osfinfo.obj
 0002:00014350       __sehtable$___lock_fhandle 0045a350     LIBCMT:osfinfo.obj
 0002:00014370       __sehtable$__sopen_helper  0045a370     LIBCMT:open.obj
 0002:00014390       __sehtable$__lseeki64      0045a390     LIBCMT:lseeki64.obj
 0002:000143b0       __sehtable$___tzset        0045a3b0     LIBCMT:tzset.obj
 0002:000143d0       __sehtable$__tzset_nolock  0045a3d0     LIBCMT:tzset.obj
 0002:000143f0       __sehtable$___set_fpsr_sse2 0045a3f0     LIBCMT:fpctrl.obj
 0002:000146e0       .idata$6                   0045a6e0     advapi32:ADVAPI32.dll
 0002:00014766       .idata$6                   0045a766     user32:USER32.dll
 0002:00014f78       .idata$6                   0045af78     kernel32:KERNEL32.dll
 0003:00000008       _subkeytypes               0045b008     conf.obj
 0003:000002c0       _valuetypes                0045b2c0     conf.obj
 0003:00000590       _gss_mech_krb5_desc        0045b590     pgssapi.obj
 0003:00000598       _statistics                0045b598     pscp.obj
 0003:0000059c       _try_scp                   0045b59c     pscp.obj
 0003:000005a0       _try_sftp                  0045b5a0     pscp.obj
 0003:000005a8       _hostkey_algs              0045b5a8     ssh.obj
 0003:000005b0       _macs                      0045b5b0     ssh.obj
 0003:000005c0       _buggymacs                 0045b5c0     ssh.obj
 0003:000005cc       _compressions              0045b5cc     ssh.obj
 0003:000005d4       ?noprompt@?IA@??do_ssh2_authconn@@9@9 0045b5d4     ssh.obj
 0003:000006a8       _sftp_ssh_socket           0045b6a8     winsftp.obj
 0003:000006ac       _netevent                  0045b6ac     winsftp.obj
 0003:000006b0       __assertstring             0045b6b0     LIBCMT:wassert.obj
 0003:00000700       _dotdotdot                 0045b700     LIBCMT:wassert.obj
 0003:00000704       _newline                   0045b704     LIBCMT:wassert.obj
 0003:00000708       _dblnewline                0045b708     LIBCMT:wassert.obj
 0003:000009b0       _errtable                  0045b9b0     LIBCMT:dosmap.obj
 0003:00000b18       _ErrnoNoMem                0045bb18     LIBCMT:dosmap.obj
 0003:00000b1c       _DoserrorNoMem             0045bb1c     LIBCMT:dosmap.obj
 0003:00000b90       __locktable                0045bb90     LIBCMT:mlock.obj
 0003:00000cbc       ___rgctypeflag             0045bcbc     LIBCMT:mbctype.obj
 0003:00000cc0       ___rgcode_page_info        0045bcc0     LIBCMT:mbctype.obj
 0003:00001410       __ctype_loc_style          0045c410     LIBCMT:wsetloca.obj
 0003:00001414       ?isPackaged@?1??__crtIsPackagedApp@@9@9 0045c414     LIBCMT:winapisupp.obj
 0003:000015a0       _dststart                  0045c5a0     LIBCMT:tzset.obj
 0003:000015ac       _dstend                    0045c5ac     LIBCMT:tzset.obj
 0003:000015c8       _tzstd                     0045c5c8     LIBCMT:timeset.obj
 0003:00001608       _tzdst                     0045c608     LIBCMT:timeset.obj
 0003:00001650       _DoubleFormat              0045c650     LIBCMT:intrncvt.obj
 0003:00001668       _FloatFormat               0045c668     LIBCMT:intrncvt.obj
 0003:000019ac       _over                      0045c9ac     LIBCMT:fpctrl.obj
 0003:000019b8       _under                     0045c9b8     LIBCMT:fpctrl.obj
 0003:000019c4       ?__DAZ_ENABLED@?1??__set_fpsr_sse2@@9@9 0045c9c4     LIBCMT:fpctrl.obj
 0003:000019e4       _cmdline_password          0045c9e4     cmdline.obj
 0003:000019e8       ?tried_once@?1??cmdline_get_passwd_input@@9@9 0045c9e8     cmdline.obj
 0003:000019ec       _saves                     0045c9ec     cmdline.obj
 0003:00001a04       _list                      0045ca04     pscp.obj
 0003:00001a08       _verbose                   0045ca08     pscp.obj
 0003:00001a0c       _recursive                 0045ca0c     pscp.obj
 0003:00001a10       _preserve                  0045ca10     pscp.obj
 0003:00001a14       _targetshouldbedirectory   0045ca14     pscp.obj
 0003:00001a18       _prev_stats_len            0045ca18     pscp.obj
 0003:00001a1c       _scp_unsafe_mode           0045ca1c     pscp.obj
 0003:00001a20       _errs                      0045ca20     pscp.obj
 0003:00001a24       _main_cmd_is_sftp          0045ca24     pscp.obj
 0003:00001a28       _fallback_cmd_is_sftp      0045ca28     pscp.obj
 0003:00001a2c       _using_sftp                0045ca2c     pscp.obj
 0003:00001a34       _pending                   0045ca34     pscp.obj
 0003:00001a38       _pendlen                   0045ca38     pscp.obj
 0003:00001a3c       _pendsize                  0045ca3c     pscp.obj
 0003:00001a40       _back                      0045ca40     pscp.obj
 0003:00001a44       _backhandle                0045ca44     pscp.obj
 0003:00001a48       _conf                      0045ca48     pscp.obj
 0003:00001a4c       _outptr                    0045ca4c     pscp.obj
 0003:00001a50       _outlen                    0045ca50     pscp.obj
 0003:00001a54       _scp_sftp_dirstack_head    0045ca54     pscp.obj
 0003:00001a58       _scp_sftp_remotepath       0045ca58     pscp.obj
 0003:00001a5c       _scp_sftp_currentname      0045ca5c     pscp.obj
 0003:00001a60       _scp_sftp_wildcard         0045ca60     pscp.obj
 0003:00001a64       _scp_sftp_targetisdir      0045ca64     pscp.obj
 0003:00001a68       _scp_sftp_donethistarget   0045ca68     pscp.obj
 0003:00001a6c       _scp_sftp_preserve         0045ca6c     pscp.obj
 0003:00001a70       _scp_sftp_recursive        0045ca70     pscp.obj
 0003:00001a74       _scp_sftp_mtime            0045ca74     pscp.obj
 0003:00001a78       _scp_sftp_atime            0045ca78     pscp.obj
 0003:00001a7c       _scp_has_times             0045ca7c     pscp.obj
 0003:00001a80       _scp_sftp_filehandle       0045ca80     pscp.obj
 0003:00001a84       _scp_sftp_xfer             0045ca84     pscp.obj
 0003:00001a88       _scp_sftp_fileoffset       0045ca88     pscp.obj
 0003:00001a90       _fxp_error_message         0045ca90     sftp.obj
 0003:00001a94       _fxp_errtype               0045ca94     sftp.obj
 0003:00001a98       _sftp_requests             0045ca98     sftp.obj
 0003:00001aa0       ?ssh_specials@?1??ssh_get_specials@@9@9 0045caa0     ssh.obj
 0003:00001b60       _pool                      0045cb60     sshrand.obj
 0003:00002070       _timers                    0045d070     timing.obj
 0003:00002074       _timer_contexts            0045d074     timing.obj
 0003:00002078       _now                       0045d078     timing.obj
 0003:00002080       _console_logctx            0045d080     wincons.obj
 0003:00002088       _p_AcquireCredentialsHandleA 0045d088     wingss.obj
 0003:0000208c       _p_InitializeSecurityContextA 0045d08c     wingss.obj
 0003:00002090       _p_FreeContextBuffer       0045d090     wingss.obj
 0003:00002094       _p_FreeCredentialsHandle   0045d094     wingss.obj
 0003:00002098       _p_DeleteSecurityContext   0045d098     wingss.obj
 0003:0000209c       _p_QueryContextAttributesA 0045d09c     wingss.obj
 0003:000020a0       _p_MakeSignature           0045d0a0     wingss.obj
 0003:000020a4       _handles_by_evtomain       0045d0a4     winhandl.obj
 0003:000020a8       ?tried_usernameex@?2??get_username@@9@9 0045d0a8     winmisc.obj
 0003:000020ac       ?sysdir@?1??load_system32_dll@@9@9 0045d0ac     winmisc.obj
 0003:000020b0       ?p_GetUserNameExA@?1??get_username@@9@9 0045d0b0     winmisc.obj
 0003:000020b8       _winsock_module            0045d0b8     winnet.obj
 0003:000020bc       _winsock2_module           0045d0bc     winnet.obj
 0003:000020c0       _wship6_module             0045d0c0     winnet.obj
 0003:000020c4       _errstrings                0045d0c4     winnet.obj
 0003:000020c8       _sktree                    0045d0c8     winnet.obj
 0003:000020cc       _p_WSAStartup              0045d0cc     winnet.obj
 0003:000020d0       _p_WSACleanup              0045d0d0     winnet.obj
 0003:000020d4       _p_closesocket             0045d0d4     winnet.obj
 0003:000020d8       _p_ntohl                   0045d0d8     winnet.obj
 0003:000020dc       _p_htonl                   0045d0dc     winnet.obj
 0003:000020e0       _p_htons                   0045d0e0     winnet.obj
 0003:000020e4       _p_ntohs                   0045d0e4     winnet.obj
 0003:000020e8       _p_gethostname             0045d0e8     winnet.obj
 0003:000020ec       _p_gethostbyname           0045d0ec     winnet.obj
 0003:000020f0       _p_getservbyname           0045d0f0     winnet.obj
 0003:000020f4       _p_inet_addr               0045d0f4     winnet.obj
 0003:000020f8       _p_inet_ntoa               0045d0f8     winnet.obj
 0003:000020fc       _p_connect                 0045d0fc     winnet.obj
 0003:00002100       _p_bind                    0045d100     winnet.obj
 0003:00002104       _p_setsockopt              0045d104     winnet.obj
 0003:00002108       _p_socket                  0045d108     winnet.obj
 0003:0000210c       _p_listen                  0045d10c     winnet.obj
 0003:00002110       _p_send                    0045d110     winnet.obj
 0003:00002114       _p_shutdown                0045d114     winnet.obj
 0003:00002118       _p_ioctlsocket             0045d118     winnet.obj
 0003:0000211c       _p_accept                  0045d11c     winnet.obj
 0003:00002120       _p_recv                    0045d120     winnet.obj
 0003:00002124       _p_WSAIoctl                0045d124     winnet.obj
 0003:00002128       _p_getaddrinfo             0045d128     winnet.obj
 0003:0000212c       _p_freeaddrinfo            0045d12c     winnet.obj
 0003:00002130       _p_getnameinfo             0045d130     winnet.obj
 0003:00002134       _p_gai_strerror            0045d134     winnet.obj
 0003:00002138       _p_WSAAddressToStringA     0045d138     winnet.obj
 0003:0000213c       _n_local_interfaces        0045d13c     winnet.obj
 0003:00002140       _wsadata                   0045d140     winnet.obj
 0003:000022d0       _local_interfaces          0045d2d0     winnet.obj
 0003:00002794       _advapi                    0045d794     winpgntc.obj
 0003:00002798       _p_OpenProcessToken        0045d798     winpgntc.obj
 0003:0000279c       _p_GetTokenInformation     0045d79c     winpgntc.obj
 0003:000027a0       _p_InitializeSecurityDescriptor 0045d7a0     winpgntc.obj
 0003:000027a4       _p_SetSecurityDescriptorOwner 0045d7a4     winpgntc.obj
 0003:000027a8       _tried_shgetfolderpath     0045d7a8     winstore.obj
 0003:000027ac       _shell32_module            0045d7ac     winstore.obj
 0003:000027b0       _p_SHGetFolderPathA        0045d7b0     winstore.obj
 0003:000027c0       _GS_ExceptionRecord        0045d7c0     LIBCMT:gs_report.obj
 0003:00002810       _GS_ContextRecord          0045d810     LIBCMT:gs_report.obj
 0003:00002adc       _DebuggerWasPresent        0045dadc     LIBCMT:gs_report.obj
 0003:00002b14       ___enable_percent_n        0045db14     LIBCMT:printf.obj
 0003:00002c34       _ctrlc_action              0045dc34     LIBCMT:winsig.obj
 0003:00002c38       _ctrlbreak_action          0045dc38     LIBCMT:winsig.obj
 0003:00002c3c       _abort_action              0045dc3c     LIBCMT:winsig.obj
 0003:00002c40       _term_action               0045dc40     LIBCMT:winsig.obj
 0003:00002c44       _ConsoleCtrlHandler_Installed 0045dc44     LIBCMT:winsig.obj
 0003:00002c48       ?pfnMessageBox@?1??__crtMessageBoxW@@9@9 0045dc48     LIBCMT:crtmboxw.obj
 0003:00002c4c       ?pfnGetActiveWindow@?1??__crtMessageBoxW@@9@9 0045dc4c     LIBCMT:crtmboxw.obj
 0003:00002c50       ?pfnGetLastActivePopup@?1??__crtMessageBoxW@@9@9 0045dc50     LIBCMT:crtmboxw.obj
 0003:00002c54       ?pfnGetProcessWindowStation@?1??__crtMessageBoxW@@9@9 0045dc54     LIBCMT:crtmboxw.obj
 0003:00002c58       ?pfnGetUserObjectInformation@?1??__crtMessageBoxW@@9@9 0045dc58     LIBCMT:crtmboxw.obj
 0003:00002c68       ?outmsg@?8??_NMSG_WRITE@@9@9 0045dc68     LIBCMT:crt0msg.obj
 0003:00003290       _lclcritsects              0045e290     LIBCMT:mlock.obj
 0003:00003404       _fSystemSet                0045e404     LIBCMT:mbctype.obj
 0003:00003420       _g_pfnRtlGenRandom         0045e420     LIBCMT:rand_s.obj
 0003:00003428       ?_pgmname@?1??_setargv@@9@9 0045e428     LIBCMT:stdargv.obj
 0003:00003540       ___crtCallProc             0045e540     LIBCMT:winapinls.obj
 0003:00003548       _lastTZ                    0045e548     LIBCMT:tzset.obj
 0003:0000354c       ?first_time@?1??__tzset@@9@9 0045e54c     LIBCMT:tzset.obj
 0003:00003550       _tzapiused                 0045e550     LIBCMT:tzset.obj
 0003:00003558       _tzinfo                    0045e558     LIBCMT:tzset.obj
 0004:000001e0       $R000000                   004601e0     pscp.res
 0004:00000308       $R000128                   00460308     pscp.res
 0004:000005f0       $R000410                   004605f0     pscp.res
 0004:00000c58       $R000A78                   00460c58     pscp.res
 0004:00000d08       $R000B28                   00460d08     pscp.res
 0004:00000e38       $R000C58                   00460e38     pscp.res
 0004:00001168       $R000F88                   00461168     pscp.res
 0004:000011c8       $R000FE8                   004611c8     pscp.res
